
project1.elf:     file format elf32-avr

Sections:
Idx Name          Size      VMA       LMA       File off  Algn
  0 .data         0000008c  00800100  00002aac  00002b40  2**0
                  CONTENTS, ALLOC, LOAD, DATA
  1 .text         00002aac  00000000  00000000  00000094  2**1
                  CONTENTS, ALLOC, LOAD, READONLY, CODE
  2 .bss          0000000d  0080018c  0080018c  00002bcc  2**0
                  ALLOC
  3 .comment      0000006d  00000000  00000000  00002bcc  2**0
                  CONTENTS, READONLY
  4 .note.gnu.avr.deviceinfo 0000003c  00000000  00000000  00002c3c  2**2
                  CONTENTS, READONLY
  5 .debug_aranges 00000180  00000000  00000000  00002c78  2**3
                  CONTENTS, READONLY, DEBUGGING
  6 .debug_info   00003003  00000000  00000000  00002df8  2**0
                  CONTENTS, READONLY, DEBUGGING
  7 .debug_abbrev 00001280  00000000  00000000  00005dfb  2**0
                  CONTENTS, READONLY, DEBUGGING
  8 .debug_line   00002042  00000000  00000000  0000707b  2**0
                  CONTENTS, READONLY, DEBUGGING
  9 .debug_frame  00001514  00000000  00000000  000090c0  2**2
                  CONTENTS, READONLY, DEBUGGING
 10 .debug_str    0000131e  00000000  00000000  0000a5d4  2**0
                  CONTENTS, READONLY, DEBUGGING
 11 .debug_loc    000028a7  00000000  00000000  0000b8f2  2**0
                  CONTENTS, READONLY, DEBUGGING
 12 .debug_ranges 000000b8  00000000  00000000  0000e199  2**0
                  CONTENTS, READONLY, DEBUGGING

Disassembly of section .text:

00000000 <__vectors>:
       0:	ed c0       	rjmp	.+474    	; 0x1dc <__ctors_end>
       2:	00 00       	nop
       4:	0d c1       	rjmp	.+538    	; 0x220 <__vector_1>
       6:	00 00       	nop
       8:	34 c1       	rjmp	.+616    	; 0x272 <__vector_2>
       a:	00 00       	nop
       c:	5b c1       	rjmp	.+694    	; 0x2c4 <__vector_3>
       e:	00 00       	nop
      10:	82 c1       	rjmp	.+772    	; 0x316 <__vector_4>
      12:	00 00       	nop
      14:	a9 c1       	rjmp	.+850    	; 0x368 <__vector_5>
      16:	00 00       	nop
      18:	d0 c1       	rjmp	.+928    	; 0x3ba <__vector_6>
      1a:	00 00       	nop
      1c:	f7 c1       	rjmp	.+1006   	; 0x40c <__vector_7>
      1e:	00 00       	nop
      20:	1e c2       	rjmp	.+1084   	; 0x45e <__vector_8>
      22:	00 00       	nop
      24:	45 c2       	rjmp	.+1162   	; 0x4b0 <__vector_9>
      26:	00 00       	nop
      28:	6c c2       	rjmp	.+1240   	; 0x502 <__vector_10>
      2a:	00 00       	nop
      2c:	93 c2       	rjmp	.+1318   	; 0x554 <__vector_11>
      2e:	00 00       	nop
      30:	ba c2       	rjmp	.+1396   	; 0x5a6 <__vector_12>
      32:	00 00       	nop
      34:	e1 c2       	rjmp	.+1474   	; 0x5f8 <__vector_13>
      36:	00 00       	nop
      38:	08 c3       	rjmp	.+1552   	; 0x64a <__vector_14>
      3a:	00 00       	nop
      3c:	2f c3       	rjmp	.+1630   	; 0x69c <__vector_15>
      3e:	00 00       	nop
      40:	56 c3       	rjmp	.+1708   	; 0x6ee <__vector_16>
      42:	00 00       	nop
      44:	7d c3       	rjmp	.+1786   	; 0x740 <__vector_17>
      46:	00 00       	nop
      48:	a4 c3       	rjmp	.+1864   	; 0x792 <__vector_18>
      4a:	00 00       	nop
      4c:	cb c3       	rjmp	.+1942   	; 0x7e4 <__vector_19>
      4e:	00 00       	nop
      50:	f2 c3       	rjmp	.+2020   	; 0x836 <__vector_20>
      52:	00 00       	nop
      54:	19 c4       	rjmp	.+2098   	; 0x888 <__vector_21>
      56:	00 00       	nop
      58:	40 c4       	rjmp	.+2176   	; 0x8da <__vector_22>
      5a:	00 00       	nop
      5c:	67 c4       	rjmp	.+2254   	; 0x92c <__vector_23>
      5e:	00 00       	nop
      60:	8e c4       	rjmp	.+2332   	; 0x97e <__vector_24>
      62:	00 00       	nop
      64:	b5 c4       	rjmp	.+2410   	; 0x9d0 <__vector_25>
      66:	00 00       	nop
      68:	dc c4       	rjmp	.+2488   	; 0xa22 <__vector_26>
      6a:	00 00       	nop
      6c:	03 c5       	rjmp	.+2566   	; 0xa74 <__vector_27>
      6e:	00 00       	nop
      70:	2a c5       	rjmp	.+2644   	; 0xac6 <__vector_28>
      72:	00 00       	nop
      74:	51 c5       	rjmp	.+2722   	; 0xb18 <__vector_29>
      76:	00 00       	nop
      78:	78 c5       	rjmp	.+2800   	; 0xb6a <__vector_30>
      7a:	00 00       	nop
      7c:	9f c5       	rjmp	.+2878   	; 0xbbc <__vector_31>
      7e:	00 00       	nop
      80:	c6 c5       	rjmp	.+2956   	; 0xc0e <__vector_32>
      82:	00 00       	nop
      84:	ed c5       	rjmp	.+3034   	; 0xc60 <__vector_33>
      86:	00 00       	nop
      88:	14 c6       	rjmp	.+3112   	; 0xcb2 <__vector_34>
	...

0000008c <__trampolines_end>:
      8c:	6e 61       	ori	r22, 0x1E	; 30
      8e:	6e 00       	.word	0x006e	; ????

00000090 <__c.2332>:
      90:	69 6e 66 00 00 40 7a 10 f3 5a 00 a0 72 4e 18 09     inf..@z..Z..rN..
      a0:	00 10 a5 d4 e8 00 00 e8 76 48 17 00 00 e4 0b 54     ........vH.....T
      b0:	02 00 00 ca 9a 3b 00 00 00 e1 f5 05 00 00 80 96     .....;..........
      c0:	98 00 00 00 40 42 0f 00 00 00 a0 86 01 00 00 00     ....@B..........
      d0:	10 27 00 00 00 00 e8 03 00 00 00 00 64 00 00 00     .'..........d...
      e0:	00 00 0a 00 00 00 00 00 01 00 00 00 00 00 2c 76     ..............,v
      f0:	d8 88 dc 67 4f 08 23 df c1 df ae 59 e1 b1 b7 96     ...gO.#....Y....
     100:	e5 e3 e4 53 c6 3a e6 51 99 76 96 e8 e6 c2 84 26     ...S.:.Q.v.....&
     110:	eb 89 8c 9b 62 ed 40 7c 6f fc ef bc 9c 9f 40 f2     ....b.@|o.....@.
     120:	ba a5 6f a5 f4 90 05 5a 2a f7 5c 93 6b 6c f9 67     ..o....Z*.\.kl.g
     130:	6d c1 1b fc e0 e4 0d 47 fe f5 20 e6 b5 00 d0 ed     m......G.. .....
     140:	90 2e 03 00 94 35 77 05 00 80 84 1e 08 00 00 20     .....5w........ 
     150:	4e 0a 00 00 00 c8 0c 33 33 33 33 0f 98 6e 12 83     N......3333..n..
     160:	11 41 ef 8d 21 14 89 3b e6 55 16 cf fe e6 db 18     .A..!..;.U......
     170:	d1 84 4b 38 1b f7 7c 1d 90 1d a4 bb e4 24 20 32     ..K8..|......$ 2
     180:	84 72 5e 22 81 00 c9 f1 24 ec a1 e5 3d 27           .r^"....$...='

0000018e <__c.2529>:
     18e:	63 64 69 6e 6f 70 73 75 78 58 5b 65 66 67 45 46     cdinopsuxX[efgEF
     19e:	47 00                                               G.

000001a0 <pstr_an>:
     1a0:	61 6e 00                                            an.

000001a3 <pstr_nfinity>:
     1a3:	6e 66 69 6e 69 74 79 00                             nfinity.

000001ab <pwr_m10>:
     1ab:	cd cc cc 3d 0a d7 23 3c 17 b7 d1 38 77 cc 2b 32     ...=..#<...8w.+2
     1bb:	95 95 e6 24 1f b1 4f 0a                             ...$..O.

000001c3 <pwr_p10>:
     1c3:	00 00 20 41 00 00 c8 42 00 40 1c 46 20 bc be 4c     .. A...B.@.F ..L
     1d3:	ca 1b 0e 5a ae c5 9d 74 00                          ...Z...t.

000001dc <__ctors_end>:
     1dc:	11 24       	eor	r1, r1
     1de:	1f be       	out	0x3f, r1	; 63
     1e0:	cf ef       	ldi	r28, 0xFF	; 255
     1e2:	d0 e1       	ldi	r29, 0x10	; 16
     1e4:	de bf       	out	0x3e, r29	; 62
     1e6:	cd bf       	out	0x3d, r28	; 61

000001e8 <__do_copy_data>:
     1e8:	11 e0       	ldi	r17, 0x01	; 1
     1ea:	a0 e0       	ldi	r26, 0x00	; 0
     1ec:	b1 e0       	ldi	r27, 0x01	; 1
     1ee:	ec ea       	ldi	r30, 0xAC	; 172
     1f0:	fa e2       	ldi	r31, 0x2A	; 42
     1f2:	00 e0       	ldi	r16, 0x00	; 0
     1f4:	0b bf       	out	0x3b, r16	; 59
     1f6:	02 c0       	rjmp	.+4      	; 0x1fc <__do_copy_data+0x14>
     1f8:	07 90       	elpm	r0, Z+
     1fa:	0d 92       	st	X+, r0
     1fc:	ac 38       	cpi	r26, 0x8C	; 140
     1fe:	b1 07       	cpc	r27, r17
     200:	d9 f7       	brne	.-10     	; 0x1f8 <__do_copy_data+0x10>

00000202 <__do_clear_bss>:
     202:	21 e0       	ldi	r18, 0x01	; 1
     204:	ac e8       	ldi	r26, 0x8C	; 140
     206:	b1 e0       	ldi	r27, 0x01	; 1
     208:	01 c0       	rjmp	.+2      	; 0x20c <.do_clear_bss_start>

0000020a <.do_clear_bss_loop>:
     20a:	1d 92       	st	X+, r1

0000020c <.do_clear_bss_start>:
     20c:	a9 39       	cpi	r26, 0x99	; 153
     20e:	b2 07       	cpc	r27, r18
     210:	e1 f7       	brne	.-8      	; 0x20a <.do_clear_bss_loop>
     212:	0e 94 0b 0a 	call	0x1416	; 0x1416 <main>
     216:	0c 94 54 15 	jmp	0x2aa8	; 0x2aa8 <_exit>

0000021a <USE_C4MLIB_INTERRUPT>:
     21a:	08 95       	ret

0000021c <__INT0_vect_routine1>:
     21c:	08 95       	ret

0000021e <__INT0_vect_routine>:
     21e:	fe cf       	rjmp	.-4      	; 0x21c <__INT0_vect_routine1>

00000220 <__vector_1>:
     220:	1f 92       	push	r1
     222:	0f 92       	push	r0
     224:	0f b6       	in	r0, 0x3f	; 63
     226:	0f 92       	push	r0
     228:	11 24       	eor	r1, r1
     22a:	0b b6       	in	r0, 0x3b	; 59
     22c:	0f 92       	push	r0
     22e:	2f 93       	push	r18
     230:	3f 93       	push	r19
     232:	4f 93       	push	r20
     234:	5f 93       	push	r21
     236:	6f 93       	push	r22
     238:	7f 93       	push	r23
     23a:	8f 93       	push	r24
     23c:	9f 93       	push	r25
     23e:	af 93       	push	r26
     240:	bf 93       	push	r27
     242:	ef 93       	push	r30
     244:	ff 93       	push	r31
     246:	eb df       	rcall	.-42     	; 0x21e <__INT0_vect_routine>
     248:	ff 91       	pop	r31
     24a:	ef 91       	pop	r30
     24c:	bf 91       	pop	r27
     24e:	af 91       	pop	r26
     250:	9f 91       	pop	r25
     252:	8f 91       	pop	r24
     254:	7f 91       	pop	r23
     256:	6f 91       	pop	r22
     258:	5f 91       	pop	r21
     25a:	4f 91       	pop	r20
     25c:	3f 91       	pop	r19
     25e:	2f 91       	pop	r18
     260:	0f 90       	pop	r0
     262:	0b be       	out	0x3b, r0	; 59
     264:	0f 90       	pop	r0
     266:	0f be       	out	0x3f, r0	; 63
     268:	0f 90       	pop	r0
     26a:	1f 90       	pop	r1
     26c:	18 95       	reti

0000026e <__INT1_vect_routine1>:
     26e:	08 95       	ret

00000270 <__INT1_vect_routine>:
     270:	fe cf       	rjmp	.-4      	; 0x26e <__INT1_vect_routine1>

00000272 <__vector_2>:
     272:	1f 92       	push	r1
     274:	0f 92       	push	r0
     276:	0f b6       	in	r0, 0x3f	; 63
     278:	0f 92       	push	r0
     27a:	11 24       	eor	r1, r1
     27c:	0b b6       	in	r0, 0x3b	; 59
     27e:	0f 92       	push	r0
     280:	2f 93       	push	r18
     282:	3f 93       	push	r19
     284:	4f 93       	push	r20
     286:	5f 93       	push	r21
     288:	6f 93       	push	r22
     28a:	7f 93       	push	r23
     28c:	8f 93       	push	r24
     28e:	9f 93       	push	r25
     290:	af 93       	push	r26
     292:	bf 93       	push	r27
     294:	ef 93       	push	r30
     296:	ff 93       	push	r31
     298:	eb df       	rcall	.-42     	; 0x270 <__INT1_vect_routine>
     29a:	ff 91       	pop	r31
     29c:	ef 91       	pop	r30
     29e:	bf 91       	pop	r27
     2a0:	af 91       	pop	r26
     2a2:	9f 91       	pop	r25
     2a4:	8f 91       	pop	r24
     2a6:	7f 91       	pop	r23
     2a8:	6f 91       	pop	r22
     2aa:	5f 91       	pop	r21
     2ac:	4f 91       	pop	r20
     2ae:	3f 91       	pop	r19
     2b0:	2f 91       	pop	r18
     2b2:	0f 90       	pop	r0
     2b4:	0b be       	out	0x3b, r0	; 59
     2b6:	0f 90       	pop	r0
     2b8:	0f be       	out	0x3f, r0	; 63
     2ba:	0f 90       	pop	r0
     2bc:	1f 90       	pop	r1
     2be:	18 95       	reti

000002c0 <__INT2_vect_routine1>:
     2c0:	08 95       	ret

000002c2 <__INT2_vect_routine>:
     2c2:	fe cf       	rjmp	.-4      	; 0x2c0 <__INT2_vect_routine1>

000002c4 <__vector_3>:
     2c4:	1f 92       	push	r1
     2c6:	0f 92       	push	r0
     2c8:	0f b6       	in	r0, 0x3f	; 63
     2ca:	0f 92       	push	r0
     2cc:	11 24       	eor	r1, r1
     2ce:	0b b6       	in	r0, 0x3b	; 59
     2d0:	0f 92       	push	r0
     2d2:	2f 93       	push	r18
     2d4:	3f 93       	push	r19
     2d6:	4f 93       	push	r20
     2d8:	5f 93       	push	r21
     2da:	6f 93       	push	r22
     2dc:	7f 93       	push	r23
     2de:	8f 93       	push	r24
     2e0:	9f 93       	push	r25
     2e2:	af 93       	push	r26
     2e4:	bf 93       	push	r27
     2e6:	ef 93       	push	r30
     2e8:	ff 93       	push	r31
     2ea:	eb df       	rcall	.-42     	; 0x2c2 <__INT2_vect_routine>
     2ec:	ff 91       	pop	r31
     2ee:	ef 91       	pop	r30
     2f0:	bf 91       	pop	r27
     2f2:	af 91       	pop	r26
     2f4:	9f 91       	pop	r25
     2f6:	8f 91       	pop	r24
     2f8:	7f 91       	pop	r23
     2fa:	6f 91       	pop	r22
     2fc:	5f 91       	pop	r21
     2fe:	4f 91       	pop	r20
     300:	3f 91       	pop	r19
     302:	2f 91       	pop	r18
     304:	0f 90       	pop	r0
     306:	0b be       	out	0x3b, r0	; 59
     308:	0f 90       	pop	r0
     30a:	0f be       	out	0x3f, r0	; 63
     30c:	0f 90       	pop	r0
     30e:	1f 90       	pop	r1
     310:	18 95       	reti

00000312 <__INT3_vect_routine1>:
     312:	08 95       	ret

00000314 <__INT3_vect_routine>:
     314:	fe cf       	rjmp	.-4      	; 0x312 <__INT3_vect_routine1>

00000316 <__vector_4>:
     316:	1f 92       	push	r1
     318:	0f 92       	push	r0
     31a:	0f b6       	in	r0, 0x3f	; 63
     31c:	0f 92       	push	r0
     31e:	11 24       	eor	r1, r1
     320:	0b b6       	in	r0, 0x3b	; 59
     322:	0f 92       	push	r0
     324:	2f 93       	push	r18
     326:	3f 93       	push	r19
     328:	4f 93       	push	r20
     32a:	5f 93       	push	r21
     32c:	6f 93       	push	r22
     32e:	7f 93       	push	r23
     330:	8f 93       	push	r24
     332:	9f 93       	push	r25
     334:	af 93       	push	r26
     336:	bf 93       	push	r27
     338:	ef 93       	push	r30
     33a:	ff 93       	push	r31
     33c:	eb df       	rcall	.-42     	; 0x314 <__INT3_vect_routine>
     33e:	ff 91       	pop	r31
     340:	ef 91       	pop	r30
     342:	bf 91       	pop	r27
     344:	af 91       	pop	r26
     346:	9f 91       	pop	r25
     348:	8f 91       	pop	r24
     34a:	7f 91       	pop	r23
     34c:	6f 91       	pop	r22
     34e:	5f 91       	pop	r21
     350:	4f 91       	pop	r20
     352:	3f 91       	pop	r19
     354:	2f 91       	pop	r18
     356:	0f 90       	pop	r0
     358:	0b be       	out	0x3b, r0	; 59
     35a:	0f 90       	pop	r0
     35c:	0f be       	out	0x3f, r0	; 63
     35e:	0f 90       	pop	r0
     360:	1f 90       	pop	r1
     362:	18 95       	reti

00000364 <__INT4_vect_routine1>:
     364:	08 95       	ret

00000366 <__INT4_vect_routine>:
     366:	fe cf       	rjmp	.-4      	; 0x364 <__INT4_vect_routine1>

00000368 <__vector_5>:
     368:	1f 92       	push	r1
     36a:	0f 92       	push	r0
     36c:	0f b6       	in	r0, 0x3f	; 63
     36e:	0f 92       	push	r0
     370:	11 24       	eor	r1, r1
     372:	0b b6       	in	r0, 0x3b	; 59
     374:	0f 92       	push	r0
     376:	2f 93       	push	r18
     378:	3f 93       	push	r19
     37a:	4f 93       	push	r20
     37c:	5f 93       	push	r21
     37e:	6f 93       	push	r22
     380:	7f 93       	push	r23
     382:	8f 93       	push	r24
     384:	9f 93       	push	r25
     386:	af 93       	push	r26
     388:	bf 93       	push	r27
     38a:	ef 93       	push	r30
     38c:	ff 93       	push	r31
     38e:	eb df       	rcall	.-42     	; 0x366 <__INT4_vect_routine>
     390:	ff 91       	pop	r31
     392:	ef 91       	pop	r30
     394:	bf 91       	pop	r27
     396:	af 91       	pop	r26
     398:	9f 91       	pop	r25
     39a:	8f 91       	pop	r24
     39c:	7f 91       	pop	r23
     39e:	6f 91       	pop	r22
     3a0:	5f 91       	pop	r21
     3a2:	4f 91       	pop	r20
     3a4:	3f 91       	pop	r19
     3a6:	2f 91       	pop	r18
     3a8:	0f 90       	pop	r0
     3aa:	0b be       	out	0x3b, r0	; 59
     3ac:	0f 90       	pop	r0
     3ae:	0f be       	out	0x3f, r0	; 63
     3b0:	0f 90       	pop	r0
     3b2:	1f 90       	pop	r1
     3b4:	18 95       	reti

000003b6 <__INT5_vect_routine1>:
     3b6:	08 95       	ret

000003b8 <__INT5_vect_routine>:
     3b8:	fe cf       	rjmp	.-4      	; 0x3b6 <__INT5_vect_routine1>

000003ba <__vector_6>:
     3ba:	1f 92       	push	r1
     3bc:	0f 92       	push	r0
     3be:	0f b6       	in	r0, 0x3f	; 63
     3c0:	0f 92       	push	r0
     3c2:	11 24       	eor	r1, r1
     3c4:	0b b6       	in	r0, 0x3b	; 59
     3c6:	0f 92       	push	r0
     3c8:	2f 93       	push	r18
     3ca:	3f 93       	push	r19
     3cc:	4f 93       	push	r20
     3ce:	5f 93       	push	r21
     3d0:	6f 93       	push	r22
     3d2:	7f 93       	push	r23
     3d4:	8f 93       	push	r24
     3d6:	9f 93       	push	r25
     3d8:	af 93       	push	r26
     3da:	bf 93       	push	r27
     3dc:	ef 93       	push	r30
     3de:	ff 93       	push	r31
     3e0:	eb df       	rcall	.-42     	; 0x3b8 <__INT5_vect_routine>
     3e2:	ff 91       	pop	r31
     3e4:	ef 91       	pop	r30
     3e6:	bf 91       	pop	r27
     3e8:	af 91       	pop	r26
     3ea:	9f 91       	pop	r25
     3ec:	8f 91       	pop	r24
     3ee:	7f 91       	pop	r23
     3f0:	6f 91       	pop	r22
     3f2:	5f 91       	pop	r21
     3f4:	4f 91       	pop	r20
     3f6:	3f 91       	pop	r19
     3f8:	2f 91       	pop	r18
     3fa:	0f 90       	pop	r0
     3fc:	0b be       	out	0x3b, r0	; 59
     3fe:	0f 90       	pop	r0
     400:	0f be       	out	0x3f, r0	; 63
     402:	0f 90       	pop	r0
     404:	1f 90       	pop	r1
     406:	18 95       	reti

00000408 <__INT6_vect_routine1>:
     408:	08 95       	ret

0000040a <__INT6_vect_routine>:
     40a:	fe cf       	rjmp	.-4      	; 0x408 <__INT6_vect_routine1>

0000040c <__vector_7>:
     40c:	1f 92       	push	r1
     40e:	0f 92       	push	r0
     410:	0f b6       	in	r0, 0x3f	; 63
     412:	0f 92       	push	r0
     414:	11 24       	eor	r1, r1
     416:	0b b6       	in	r0, 0x3b	; 59
     418:	0f 92       	push	r0
     41a:	2f 93       	push	r18
     41c:	3f 93       	push	r19
     41e:	4f 93       	push	r20
     420:	5f 93       	push	r21
     422:	6f 93       	push	r22
     424:	7f 93       	push	r23
     426:	8f 93       	push	r24
     428:	9f 93       	push	r25
     42a:	af 93       	push	r26
     42c:	bf 93       	push	r27
     42e:	ef 93       	push	r30
     430:	ff 93       	push	r31
     432:	eb df       	rcall	.-42     	; 0x40a <__INT6_vect_routine>
     434:	ff 91       	pop	r31
     436:	ef 91       	pop	r30
     438:	bf 91       	pop	r27
     43a:	af 91       	pop	r26
     43c:	9f 91       	pop	r25
     43e:	8f 91       	pop	r24
     440:	7f 91       	pop	r23
     442:	6f 91       	pop	r22
     444:	5f 91       	pop	r21
     446:	4f 91       	pop	r20
     448:	3f 91       	pop	r19
     44a:	2f 91       	pop	r18
     44c:	0f 90       	pop	r0
     44e:	0b be       	out	0x3b, r0	; 59
     450:	0f 90       	pop	r0
     452:	0f be       	out	0x3f, r0	; 63
     454:	0f 90       	pop	r0
     456:	1f 90       	pop	r1
     458:	18 95       	reti

0000045a <__INT7_vect_routine1>:
     45a:	08 95       	ret

0000045c <__INT7_vect_routine>:
     45c:	fe cf       	rjmp	.-4      	; 0x45a <__INT7_vect_routine1>

0000045e <__vector_8>:
     45e:	1f 92       	push	r1
     460:	0f 92       	push	r0
     462:	0f b6       	in	r0, 0x3f	; 63
     464:	0f 92       	push	r0
     466:	11 24       	eor	r1, r1
     468:	0b b6       	in	r0, 0x3b	; 59
     46a:	0f 92       	push	r0
     46c:	2f 93       	push	r18
     46e:	3f 93       	push	r19
     470:	4f 93       	push	r20
     472:	5f 93       	push	r21
     474:	6f 93       	push	r22
     476:	7f 93       	push	r23
     478:	8f 93       	push	r24
     47a:	9f 93       	push	r25
     47c:	af 93       	push	r26
     47e:	bf 93       	push	r27
     480:	ef 93       	push	r30
     482:	ff 93       	push	r31
     484:	eb df       	rcall	.-42     	; 0x45c <__INT7_vect_routine>
     486:	ff 91       	pop	r31
     488:	ef 91       	pop	r30
     48a:	bf 91       	pop	r27
     48c:	af 91       	pop	r26
     48e:	9f 91       	pop	r25
     490:	8f 91       	pop	r24
     492:	7f 91       	pop	r23
     494:	6f 91       	pop	r22
     496:	5f 91       	pop	r21
     498:	4f 91       	pop	r20
     49a:	3f 91       	pop	r19
     49c:	2f 91       	pop	r18
     49e:	0f 90       	pop	r0
     4a0:	0b be       	out	0x3b, r0	; 59
     4a2:	0f 90       	pop	r0
     4a4:	0f be       	out	0x3f, r0	; 63
     4a6:	0f 90       	pop	r0
     4a8:	1f 90       	pop	r1
     4aa:	18 95       	reti

000004ac <__TIMER2_COMP_vect_routine1>:
     4ac:	08 95       	ret

000004ae <__TIMER2_COMP_vect_routine>:
     4ae:	fe cf       	rjmp	.-4      	; 0x4ac <__TIMER2_COMP_vect_routine1>

000004b0 <__vector_9>:
     4b0:	1f 92       	push	r1
     4b2:	0f 92       	push	r0
     4b4:	0f b6       	in	r0, 0x3f	; 63
     4b6:	0f 92       	push	r0
     4b8:	11 24       	eor	r1, r1
     4ba:	0b b6       	in	r0, 0x3b	; 59
     4bc:	0f 92       	push	r0
     4be:	2f 93       	push	r18
     4c0:	3f 93       	push	r19
     4c2:	4f 93       	push	r20
     4c4:	5f 93       	push	r21
     4c6:	6f 93       	push	r22
     4c8:	7f 93       	push	r23
     4ca:	8f 93       	push	r24
     4cc:	9f 93       	push	r25
     4ce:	af 93       	push	r26
     4d0:	bf 93       	push	r27
     4d2:	ef 93       	push	r30
     4d4:	ff 93       	push	r31
     4d6:	eb df       	rcall	.-42     	; 0x4ae <__TIMER2_COMP_vect_routine>
     4d8:	ff 91       	pop	r31
     4da:	ef 91       	pop	r30
     4dc:	bf 91       	pop	r27
     4de:	af 91       	pop	r26
     4e0:	9f 91       	pop	r25
     4e2:	8f 91       	pop	r24
     4e4:	7f 91       	pop	r23
     4e6:	6f 91       	pop	r22
     4e8:	5f 91       	pop	r21
     4ea:	4f 91       	pop	r20
     4ec:	3f 91       	pop	r19
     4ee:	2f 91       	pop	r18
     4f0:	0f 90       	pop	r0
     4f2:	0b be       	out	0x3b, r0	; 59
     4f4:	0f 90       	pop	r0
     4f6:	0f be       	out	0x3f, r0	; 63
     4f8:	0f 90       	pop	r0
     4fa:	1f 90       	pop	r1
     4fc:	18 95       	reti

000004fe <__TIMER2_OVF_vect_routine1>:
     4fe:	08 95       	ret

00000500 <__TIMER2_OVF_vect_routine>:
     500:	fe cf       	rjmp	.-4      	; 0x4fe <__TIMER2_OVF_vect_routine1>

00000502 <__vector_10>:
     502:	1f 92       	push	r1
     504:	0f 92       	push	r0
     506:	0f b6       	in	r0, 0x3f	; 63
     508:	0f 92       	push	r0
     50a:	11 24       	eor	r1, r1
     50c:	0b b6       	in	r0, 0x3b	; 59
     50e:	0f 92       	push	r0
     510:	2f 93       	push	r18
     512:	3f 93       	push	r19
     514:	4f 93       	push	r20
     516:	5f 93       	push	r21
     518:	6f 93       	push	r22
     51a:	7f 93       	push	r23
     51c:	8f 93       	push	r24
     51e:	9f 93       	push	r25
     520:	af 93       	push	r26
     522:	bf 93       	push	r27
     524:	ef 93       	push	r30
     526:	ff 93       	push	r31
     528:	eb df       	rcall	.-42     	; 0x500 <__TIMER2_OVF_vect_routine>
     52a:	ff 91       	pop	r31
     52c:	ef 91       	pop	r30
     52e:	bf 91       	pop	r27
     530:	af 91       	pop	r26
     532:	9f 91       	pop	r25
     534:	8f 91       	pop	r24
     536:	7f 91       	pop	r23
     538:	6f 91       	pop	r22
     53a:	5f 91       	pop	r21
     53c:	4f 91       	pop	r20
     53e:	3f 91       	pop	r19
     540:	2f 91       	pop	r18
     542:	0f 90       	pop	r0
     544:	0b be       	out	0x3b, r0	; 59
     546:	0f 90       	pop	r0
     548:	0f be       	out	0x3f, r0	; 63
     54a:	0f 90       	pop	r0
     54c:	1f 90       	pop	r1
     54e:	18 95       	reti

00000550 <__TIMER1_CAPT_vect_routine1>:
     550:	08 95       	ret

00000552 <__TIMER1_CAPT_vect_routine>:
     552:	fe cf       	rjmp	.-4      	; 0x550 <__TIMER1_CAPT_vect_routine1>

00000554 <__vector_11>:
     554:	1f 92       	push	r1
     556:	0f 92       	push	r0
     558:	0f b6       	in	r0, 0x3f	; 63
     55a:	0f 92       	push	r0
     55c:	11 24       	eor	r1, r1
     55e:	0b b6       	in	r0, 0x3b	; 59
     560:	0f 92       	push	r0
     562:	2f 93       	push	r18
     564:	3f 93       	push	r19
     566:	4f 93       	push	r20
     568:	5f 93       	push	r21
     56a:	6f 93       	push	r22
     56c:	7f 93       	push	r23
     56e:	8f 93       	push	r24
     570:	9f 93       	push	r25
     572:	af 93       	push	r26
     574:	bf 93       	push	r27
     576:	ef 93       	push	r30
     578:	ff 93       	push	r31
     57a:	eb df       	rcall	.-42     	; 0x552 <__TIMER1_CAPT_vect_routine>
     57c:	ff 91       	pop	r31
     57e:	ef 91       	pop	r30
     580:	bf 91       	pop	r27
     582:	af 91       	pop	r26
     584:	9f 91       	pop	r25
     586:	8f 91       	pop	r24
     588:	7f 91       	pop	r23
     58a:	6f 91       	pop	r22
     58c:	5f 91       	pop	r21
     58e:	4f 91       	pop	r20
     590:	3f 91       	pop	r19
     592:	2f 91       	pop	r18
     594:	0f 90       	pop	r0
     596:	0b be       	out	0x3b, r0	; 59
     598:	0f 90       	pop	r0
     59a:	0f be       	out	0x3f, r0	; 63
     59c:	0f 90       	pop	r0
     59e:	1f 90       	pop	r1
     5a0:	18 95       	reti

000005a2 <__TIMER1_COMPA_vect_routine1>:
     5a2:	08 95       	ret

000005a4 <__TIMER1_COMPA_vect_routine>:
     5a4:	fe cf       	rjmp	.-4      	; 0x5a2 <__TIMER1_COMPA_vect_routine1>

000005a6 <__vector_12>:
     5a6:	1f 92       	push	r1
     5a8:	0f 92       	push	r0
     5aa:	0f b6       	in	r0, 0x3f	; 63
     5ac:	0f 92       	push	r0
     5ae:	11 24       	eor	r1, r1
     5b0:	0b b6       	in	r0, 0x3b	; 59
     5b2:	0f 92       	push	r0
     5b4:	2f 93       	push	r18
     5b6:	3f 93       	push	r19
     5b8:	4f 93       	push	r20
     5ba:	5f 93       	push	r21
     5bc:	6f 93       	push	r22
     5be:	7f 93       	push	r23
     5c0:	8f 93       	push	r24
     5c2:	9f 93       	push	r25
     5c4:	af 93       	push	r26
     5c6:	bf 93       	push	r27
     5c8:	ef 93       	push	r30
     5ca:	ff 93       	push	r31
     5cc:	eb df       	rcall	.-42     	; 0x5a4 <__TIMER1_COMPA_vect_routine>
     5ce:	ff 91       	pop	r31
     5d0:	ef 91       	pop	r30
     5d2:	bf 91       	pop	r27
     5d4:	af 91       	pop	r26
     5d6:	9f 91       	pop	r25
     5d8:	8f 91       	pop	r24
     5da:	7f 91       	pop	r23
     5dc:	6f 91       	pop	r22
     5de:	5f 91       	pop	r21
     5e0:	4f 91       	pop	r20
     5e2:	3f 91       	pop	r19
     5e4:	2f 91       	pop	r18
     5e6:	0f 90       	pop	r0
     5e8:	0b be       	out	0x3b, r0	; 59
     5ea:	0f 90       	pop	r0
     5ec:	0f be       	out	0x3f, r0	; 63
     5ee:	0f 90       	pop	r0
     5f0:	1f 90       	pop	r1
     5f2:	18 95       	reti

000005f4 <__TIMER1_COMPB_vect_routine1>:
     5f4:	08 95       	ret

000005f6 <__TIMER1_COMPB_vect_routine>:
     5f6:	fe cf       	rjmp	.-4      	; 0x5f4 <__TIMER1_COMPB_vect_routine1>

000005f8 <__vector_13>:
     5f8:	1f 92       	push	r1
     5fa:	0f 92       	push	r0
     5fc:	0f b6       	in	r0, 0x3f	; 63
     5fe:	0f 92       	push	r0
     600:	11 24       	eor	r1, r1
     602:	0b b6       	in	r0, 0x3b	; 59
     604:	0f 92       	push	r0
     606:	2f 93       	push	r18
     608:	3f 93       	push	r19
     60a:	4f 93       	push	r20
     60c:	5f 93       	push	r21
     60e:	6f 93       	push	r22
     610:	7f 93       	push	r23
     612:	8f 93       	push	r24
     614:	9f 93       	push	r25
     616:	af 93       	push	r26
     618:	bf 93       	push	r27
     61a:	ef 93       	push	r30
     61c:	ff 93       	push	r31
     61e:	eb df       	rcall	.-42     	; 0x5f6 <__TIMER1_COMPB_vect_routine>
     620:	ff 91       	pop	r31
     622:	ef 91       	pop	r30
     624:	bf 91       	pop	r27
     626:	af 91       	pop	r26
     628:	9f 91       	pop	r25
     62a:	8f 91       	pop	r24
     62c:	7f 91       	pop	r23
     62e:	6f 91       	pop	r22
     630:	5f 91       	pop	r21
     632:	4f 91       	pop	r20
     634:	3f 91       	pop	r19
     636:	2f 91       	pop	r18
     638:	0f 90       	pop	r0
     63a:	0b be       	out	0x3b, r0	; 59
     63c:	0f 90       	pop	r0
     63e:	0f be       	out	0x3f, r0	; 63
     640:	0f 90       	pop	r0
     642:	1f 90       	pop	r1
     644:	18 95       	reti

00000646 <__TIMER1_OVF_vect_routine1>:
     646:	08 95       	ret

00000648 <__TIMER1_OVF_vect_routine>:
     648:	fe cf       	rjmp	.-4      	; 0x646 <__TIMER1_OVF_vect_routine1>

0000064a <__vector_14>:
     64a:	1f 92       	push	r1
     64c:	0f 92       	push	r0
     64e:	0f b6       	in	r0, 0x3f	; 63
     650:	0f 92       	push	r0
     652:	11 24       	eor	r1, r1
     654:	0b b6       	in	r0, 0x3b	; 59
     656:	0f 92       	push	r0
     658:	2f 93       	push	r18
     65a:	3f 93       	push	r19
     65c:	4f 93       	push	r20
     65e:	5f 93       	push	r21
     660:	6f 93       	push	r22
     662:	7f 93       	push	r23
     664:	8f 93       	push	r24
     666:	9f 93       	push	r25
     668:	af 93       	push	r26
     66a:	bf 93       	push	r27
     66c:	ef 93       	push	r30
     66e:	ff 93       	push	r31
     670:	eb df       	rcall	.-42     	; 0x648 <__TIMER1_OVF_vect_routine>
     672:	ff 91       	pop	r31
     674:	ef 91       	pop	r30
     676:	bf 91       	pop	r27
     678:	af 91       	pop	r26
     67a:	9f 91       	pop	r25
     67c:	8f 91       	pop	r24
     67e:	7f 91       	pop	r23
     680:	6f 91       	pop	r22
     682:	5f 91       	pop	r21
     684:	4f 91       	pop	r20
     686:	3f 91       	pop	r19
     688:	2f 91       	pop	r18
     68a:	0f 90       	pop	r0
     68c:	0b be       	out	0x3b, r0	; 59
     68e:	0f 90       	pop	r0
     690:	0f be       	out	0x3f, r0	; 63
     692:	0f 90       	pop	r0
     694:	1f 90       	pop	r1
     696:	18 95       	reti

00000698 <__TIMER0_COMP_vect_routine1>:
     698:	08 95       	ret

0000069a <__TIMER0_COMP_vect_routine>:
     69a:	fe cf       	rjmp	.-4      	; 0x698 <__TIMER0_COMP_vect_routine1>

0000069c <__vector_15>:
     69c:	1f 92       	push	r1
     69e:	0f 92       	push	r0
     6a0:	0f b6       	in	r0, 0x3f	; 63
     6a2:	0f 92       	push	r0
     6a4:	11 24       	eor	r1, r1
     6a6:	0b b6       	in	r0, 0x3b	; 59
     6a8:	0f 92       	push	r0
     6aa:	2f 93       	push	r18
     6ac:	3f 93       	push	r19
     6ae:	4f 93       	push	r20
     6b0:	5f 93       	push	r21
     6b2:	6f 93       	push	r22
     6b4:	7f 93       	push	r23
     6b6:	8f 93       	push	r24
     6b8:	9f 93       	push	r25
     6ba:	af 93       	push	r26
     6bc:	bf 93       	push	r27
     6be:	ef 93       	push	r30
     6c0:	ff 93       	push	r31
     6c2:	eb df       	rcall	.-42     	; 0x69a <__TIMER0_COMP_vect_routine>
     6c4:	ff 91       	pop	r31
     6c6:	ef 91       	pop	r30
     6c8:	bf 91       	pop	r27
     6ca:	af 91       	pop	r26
     6cc:	9f 91       	pop	r25
     6ce:	8f 91       	pop	r24
     6d0:	7f 91       	pop	r23
     6d2:	6f 91       	pop	r22
     6d4:	5f 91       	pop	r21
     6d6:	4f 91       	pop	r20
     6d8:	3f 91       	pop	r19
     6da:	2f 91       	pop	r18
     6dc:	0f 90       	pop	r0
     6de:	0b be       	out	0x3b, r0	; 59
     6e0:	0f 90       	pop	r0
     6e2:	0f be       	out	0x3f, r0	; 63
     6e4:	0f 90       	pop	r0
     6e6:	1f 90       	pop	r1
     6e8:	18 95       	reti

000006ea <__TIMER0_OVF_vect_routine1>:
     6ea:	08 95       	ret

000006ec <__TIMER0_OVF_vect_routine>:
     6ec:	fe cf       	rjmp	.-4      	; 0x6ea <__TIMER0_OVF_vect_routine1>

000006ee <__vector_16>:
     6ee:	1f 92       	push	r1
     6f0:	0f 92       	push	r0
     6f2:	0f b6       	in	r0, 0x3f	; 63
     6f4:	0f 92       	push	r0
     6f6:	11 24       	eor	r1, r1
     6f8:	0b b6       	in	r0, 0x3b	; 59
     6fa:	0f 92       	push	r0
     6fc:	2f 93       	push	r18
     6fe:	3f 93       	push	r19
     700:	4f 93       	push	r20
     702:	5f 93       	push	r21
     704:	6f 93       	push	r22
     706:	7f 93       	push	r23
     708:	8f 93       	push	r24
     70a:	9f 93       	push	r25
     70c:	af 93       	push	r26
     70e:	bf 93       	push	r27
     710:	ef 93       	push	r30
     712:	ff 93       	push	r31
     714:	eb df       	rcall	.-42     	; 0x6ec <__TIMER0_OVF_vect_routine>
     716:	ff 91       	pop	r31
     718:	ef 91       	pop	r30
     71a:	bf 91       	pop	r27
     71c:	af 91       	pop	r26
     71e:	9f 91       	pop	r25
     720:	8f 91       	pop	r24
     722:	7f 91       	pop	r23
     724:	6f 91       	pop	r22
     726:	5f 91       	pop	r21
     728:	4f 91       	pop	r20
     72a:	3f 91       	pop	r19
     72c:	2f 91       	pop	r18
     72e:	0f 90       	pop	r0
     730:	0b be       	out	0x3b, r0	; 59
     732:	0f 90       	pop	r0
     734:	0f be       	out	0x3f, r0	; 63
     736:	0f 90       	pop	r0
     738:	1f 90       	pop	r1
     73a:	18 95       	reti

0000073c <__SPI_STC_vect_routine1>:
     73c:	08 95       	ret

0000073e <__SPI_STC_vect_routine>:
     73e:	63 c4       	rjmp	.+2246   	; 0x1006 <SPI_STC_vect_routine1>

00000740 <__vector_17>:
     740:	1f 92       	push	r1
     742:	0f 92       	push	r0
     744:	0f b6       	in	r0, 0x3f	; 63
     746:	0f 92       	push	r0
     748:	11 24       	eor	r1, r1
     74a:	0b b6       	in	r0, 0x3b	; 59
     74c:	0f 92       	push	r0
     74e:	2f 93       	push	r18
     750:	3f 93       	push	r19
     752:	4f 93       	push	r20
     754:	5f 93       	push	r21
     756:	6f 93       	push	r22
     758:	7f 93       	push	r23
     75a:	8f 93       	push	r24
     75c:	9f 93       	push	r25
     75e:	af 93       	push	r26
     760:	bf 93       	push	r27
     762:	ef 93       	push	r30
     764:	ff 93       	push	r31
     766:	eb df       	rcall	.-42     	; 0x73e <__SPI_STC_vect_routine>
     768:	ff 91       	pop	r31
     76a:	ef 91       	pop	r30
     76c:	bf 91       	pop	r27
     76e:	af 91       	pop	r26
     770:	9f 91       	pop	r25
     772:	8f 91       	pop	r24
     774:	7f 91       	pop	r23
     776:	6f 91       	pop	r22
     778:	5f 91       	pop	r21
     77a:	4f 91       	pop	r20
     77c:	3f 91       	pop	r19
     77e:	2f 91       	pop	r18
     780:	0f 90       	pop	r0
     782:	0b be       	out	0x3b, r0	; 59
     784:	0f 90       	pop	r0
     786:	0f be       	out	0x3f, r0	; 63
     788:	0f 90       	pop	r0
     78a:	1f 90       	pop	r1
     78c:	18 95       	reti

0000078e <__USART0_RX_vect_routine1>:
     78e:	08 95       	ret

00000790 <__USART0_RX_vect_routine>:
     790:	87 c5       	rjmp	.+2830   	; 0x12a0 <USART0_RX_vect_routine1>

00000792 <__vector_18>:
     792:	1f 92       	push	r1
     794:	0f 92       	push	r0
     796:	0f b6       	in	r0, 0x3f	; 63
     798:	0f 92       	push	r0
     79a:	11 24       	eor	r1, r1
     79c:	0b b6       	in	r0, 0x3b	; 59
     79e:	0f 92       	push	r0
     7a0:	2f 93       	push	r18
     7a2:	3f 93       	push	r19
     7a4:	4f 93       	push	r20
     7a6:	5f 93       	push	r21
     7a8:	6f 93       	push	r22
     7aa:	7f 93       	push	r23
     7ac:	8f 93       	push	r24
     7ae:	9f 93       	push	r25
     7b0:	af 93       	push	r26
     7b2:	bf 93       	push	r27
     7b4:	ef 93       	push	r30
     7b6:	ff 93       	push	r31
     7b8:	eb df       	rcall	.-42     	; 0x790 <__USART0_RX_vect_routine>
     7ba:	ff 91       	pop	r31
     7bc:	ef 91       	pop	r30
     7be:	bf 91       	pop	r27
     7c0:	af 91       	pop	r26
     7c2:	9f 91       	pop	r25
     7c4:	8f 91       	pop	r24
     7c6:	7f 91       	pop	r23
     7c8:	6f 91       	pop	r22
     7ca:	5f 91       	pop	r21
     7cc:	4f 91       	pop	r20
     7ce:	3f 91       	pop	r19
     7d0:	2f 91       	pop	r18
     7d2:	0f 90       	pop	r0
     7d4:	0b be       	out	0x3b, r0	; 59
     7d6:	0f 90       	pop	r0
     7d8:	0f be       	out	0x3f, r0	; 63
     7da:	0f 90       	pop	r0
     7dc:	1f 90       	pop	r1
     7de:	18 95       	reti

000007e0 <__USART0_UDRE_vect_routine1>:
     7e0:	08 95       	ret

000007e2 <__USART0_UDRE_vect_routine>:
     7e2:	fe cf       	rjmp	.-4      	; 0x7e0 <__USART0_UDRE_vect_routine1>

000007e4 <__vector_19>:
     7e4:	1f 92       	push	r1
     7e6:	0f 92       	push	r0
     7e8:	0f b6       	in	r0, 0x3f	; 63
     7ea:	0f 92       	push	r0
     7ec:	11 24       	eor	r1, r1
     7ee:	0b b6       	in	r0, 0x3b	; 59
     7f0:	0f 92       	push	r0
     7f2:	2f 93       	push	r18
     7f4:	3f 93       	push	r19
     7f6:	4f 93       	push	r20
     7f8:	5f 93       	push	r21
     7fa:	6f 93       	push	r22
     7fc:	7f 93       	push	r23
     7fe:	8f 93       	push	r24
     800:	9f 93       	push	r25
     802:	af 93       	push	r26
     804:	bf 93       	push	r27
     806:	ef 93       	push	r30
     808:	ff 93       	push	r31
     80a:	eb df       	rcall	.-42     	; 0x7e2 <__USART0_UDRE_vect_routine>
     80c:	ff 91       	pop	r31
     80e:	ef 91       	pop	r30
     810:	bf 91       	pop	r27
     812:	af 91       	pop	r26
     814:	9f 91       	pop	r25
     816:	8f 91       	pop	r24
     818:	7f 91       	pop	r23
     81a:	6f 91       	pop	r22
     81c:	5f 91       	pop	r21
     81e:	4f 91       	pop	r20
     820:	3f 91       	pop	r19
     822:	2f 91       	pop	r18
     824:	0f 90       	pop	r0
     826:	0b be       	out	0x3b, r0	; 59
     828:	0f 90       	pop	r0
     82a:	0f be       	out	0x3f, r0	; 63
     82c:	0f 90       	pop	r0
     82e:	1f 90       	pop	r1
     830:	18 95       	reti

00000832 <__USART0_TX_vect_routine1>:
     832:	08 95       	ret

00000834 <__USART0_TX_vect_routine>:
     834:	2d c5       	rjmp	.+2650   	; 0x1290 <USART0_TX_vect_routine1>

00000836 <__vector_20>:
     836:	1f 92       	push	r1
     838:	0f 92       	push	r0
     83a:	0f b6       	in	r0, 0x3f	; 63
     83c:	0f 92       	push	r0
     83e:	11 24       	eor	r1, r1
     840:	0b b6       	in	r0, 0x3b	; 59
     842:	0f 92       	push	r0
     844:	2f 93       	push	r18
     846:	3f 93       	push	r19
     848:	4f 93       	push	r20
     84a:	5f 93       	push	r21
     84c:	6f 93       	push	r22
     84e:	7f 93       	push	r23
     850:	8f 93       	push	r24
     852:	9f 93       	push	r25
     854:	af 93       	push	r26
     856:	bf 93       	push	r27
     858:	ef 93       	push	r30
     85a:	ff 93       	push	r31
     85c:	eb df       	rcall	.-42     	; 0x834 <__USART0_TX_vect_routine>
     85e:	ff 91       	pop	r31
     860:	ef 91       	pop	r30
     862:	bf 91       	pop	r27
     864:	af 91       	pop	r26
     866:	9f 91       	pop	r25
     868:	8f 91       	pop	r24
     86a:	7f 91       	pop	r23
     86c:	6f 91       	pop	r22
     86e:	5f 91       	pop	r21
     870:	4f 91       	pop	r20
     872:	3f 91       	pop	r19
     874:	2f 91       	pop	r18
     876:	0f 90       	pop	r0
     878:	0b be       	out	0x3b, r0	; 59
     87a:	0f 90       	pop	r0
     87c:	0f be       	out	0x3f, r0	; 63
     87e:	0f 90       	pop	r0
     880:	1f 90       	pop	r1
     882:	18 95       	reti

00000884 <__ADC_vect_routine1>:
     884:	08 95       	ret

00000886 <__ADC_vect_routine>:
     886:	fe cf       	rjmp	.-4      	; 0x884 <__ADC_vect_routine1>

00000888 <__vector_21>:
     888:	1f 92       	push	r1
     88a:	0f 92       	push	r0
     88c:	0f b6       	in	r0, 0x3f	; 63
     88e:	0f 92       	push	r0
     890:	11 24       	eor	r1, r1
     892:	0b b6       	in	r0, 0x3b	; 59
     894:	0f 92       	push	r0
     896:	2f 93       	push	r18
     898:	3f 93       	push	r19
     89a:	4f 93       	push	r20
     89c:	5f 93       	push	r21
     89e:	6f 93       	push	r22
     8a0:	7f 93       	push	r23
     8a2:	8f 93       	push	r24
     8a4:	9f 93       	push	r25
     8a6:	af 93       	push	r26
     8a8:	bf 93       	push	r27
     8aa:	ef 93       	push	r30
     8ac:	ff 93       	push	r31
     8ae:	eb df       	rcall	.-42     	; 0x886 <__ADC_vect_routine>
     8b0:	ff 91       	pop	r31
     8b2:	ef 91       	pop	r30
     8b4:	bf 91       	pop	r27
     8b6:	af 91       	pop	r26
     8b8:	9f 91       	pop	r25
     8ba:	8f 91       	pop	r24
     8bc:	7f 91       	pop	r23
     8be:	6f 91       	pop	r22
     8c0:	5f 91       	pop	r21
     8c2:	4f 91       	pop	r20
     8c4:	3f 91       	pop	r19
     8c6:	2f 91       	pop	r18
     8c8:	0f 90       	pop	r0
     8ca:	0b be       	out	0x3b, r0	; 59
     8cc:	0f 90       	pop	r0
     8ce:	0f be       	out	0x3f, r0	; 63
     8d0:	0f 90       	pop	r0
     8d2:	1f 90       	pop	r1
     8d4:	18 95       	reti

000008d6 <__EE_READY_vect_routine1>:
     8d6:	08 95       	ret

000008d8 <__EE_READY_vect_routine>:
     8d8:	fe cf       	rjmp	.-4      	; 0x8d6 <__EE_READY_vect_routine1>

000008da <__vector_22>:
     8da:	1f 92       	push	r1
     8dc:	0f 92       	push	r0
     8de:	0f b6       	in	r0, 0x3f	; 63
     8e0:	0f 92       	push	r0
     8e2:	11 24       	eor	r1, r1
     8e4:	0b b6       	in	r0, 0x3b	; 59
     8e6:	0f 92       	push	r0
     8e8:	2f 93       	push	r18
     8ea:	3f 93       	push	r19
     8ec:	4f 93       	push	r20
     8ee:	5f 93       	push	r21
     8f0:	6f 93       	push	r22
     8f2:	7f 93       	push	r23
     8f4:	8f 93       	push	r24
     8f6:	9f 93       	push	r25
     8f8:	af 93       	push	r26
     8fa:	bf 93       	push	r27
     8fc:	ef 93       	push	r30
     8fe:	ff 93       	push	r31
     900:	eb df       	rcall	.-42     	; 0x8d8 <__EE_READY_vect_routine>
     902:	ff 91       	pop	r31
     904:	ef 91       	pop	r30
     906:	bf 91       	pop	r27
     908:	af 91       	pop	r26
     90a:	9f 91       	pop	r25
     90c:	8f 91       	pop	r24
     90e:	7f 91       	pop	r23
     910:	6f 91       	pop	r22
     912:	5f 91       	pop	r21
     914:	4f 91       	pop	r20
     916:	3f 91       	pop	r19
     918:	2f 91       	pop	r18
     91a:	0f 90       	pop	r0
     91c:	0b be       	out	0x3b, r0	; 59
     91e:	0f 90       	pop	r0
     920:	0f be       	out	0x3f, r0	; 63
     922:	0f 90       	pop	r0
     924:	1f 90       	pop	r1
     926:	18 95       	reti

00000928 <__ANALOG_COMP_vect_routine1>:
     928:	08 95       	ret

0000092a <__ANALOG_COMP_vect_routine>:
     92a:	fe cf       	rjmp	.-4      	; 0x928 <__ANALOG_COMP_vect_routine1>

0000092c <__vector_23>:
     92c:	1f 92       	push	r1
     92e:	0f 92       	push	r0
     930:	0f b6       	in	r0, 0x3f	; 63
     932:	0f 92       	push	r0
     934:	11 24       	eor	r1, r1
     936:	0b b6       	in	r0, 0x3b	; 59
     938:	0f 92       	push	r0
     93a:	2f 93       	push	r18
     93c:	3f 93       	push	r19
     93e:	4f 93       	push	r20
     940:	5f 93       	push	r21
     942:	6f 93       	push	r22
     944:	7f 93       	push	r23
     946:	8f 93       	push	r24
     948:	9f 93       	push	r25
     94a:	af 93       	push	r26
     94c:	bf 93       	push	r27
     94e:	ef 93       	push	r30
     950:	ff 93       	push	r31
     952:	eb df       	rcall	.-42     	; 0x92a <__ANALOG_COMP_vect_routine>
     954:	ff 91       	pop	r31
     956:	ef 91       	pop	r30
     958:	bf 91       	pop	r27
     95a:	af 91       	pop	r26
     95c:	9f 91       	pop	r25
     95e:	8f 91       	pop	r24
     960:	7f 91       	pop	r23
     962:	6f 91       	pop	r22
     964:	5f 91       	pop	r21
     966:	4f 91       	pop	r20
     968:	3f 91       	pop	r19
     96a:	2f 91       	pop	r18
     96c:	0f 90       	pop	r0
     96e:	0b be       	out	0x3b, r0	; 59
     970:	0f 90       	pop	r0
     972:	0f be       	out	0x3f, r0	; 63
     974:	0f 90       	pop	r0
     976:	1f 90       	pop	r1
     978:	18 95       	reti

0000097a <__TIMER1_COMPC_vect_routine1>:
     97a:	08 95       	ret

0000097c <__TIMER1_COMPC_vect_routine>:
     97c:	fe cf       	rjmp	.-4      	; 0x97a <__TIMER1_COMPC_vect_routine1>

0000097e <__vector_24>:
     97e:	1f 92       	push	r1
     980:	0f 92       	push	r0
     982:	0f b6       	in	r0, 0x3f	; 63
     984:	0f 92       	push	r0
     986:	11 24       	eor	r1, r1
     988:	0b b6       	in	r0, 0x3b	; 59
     98a:	0f 92       	push	r0
     98c:	2f 93       	push	r18
     98e:	3f 93       	push	r19
     990:	4f 93       	push	r20
     992:	5f 93       	push	r21
     994:	6f 93       	push	r22
     996:	7f 93       	push	r23
     998:	8f 93       	push	r24
     99a:	9f 93       	push	r25
     99c:	af 93       	push	r26
     99e:	bf 93       	push	r27
     9a0:	ef 93       	push	r30
     9a2:	ff 93       	push	r31
     9a4:	eb df       	rcall	.-42     	; 0x97c <__TIMER1_COMPC_vect_routine>
     9a6:	ff 91       	pop	r31
     9a8:	ef 91       	pop	r30
     9aa:	bf 91       	pop	r27
     9ac:	af 91       	pop	r26
     9ae:	9f 91       	pop	r25
     9b0:	8f 91       	pop	r24
     9b2:	7f 91       	pop	r23
     9b4:	6f 91       	pop	r22
     9b6:	5f 91       	pop	r21
     9b8:	4f 91       	pop	r20
     9ba:	3f 91       	pop	r19
     9bc:	2f 91       	pop	r18
     9be:	0f 90       	pop	r0
     9c0:	0b be       	out	0x3b, r0	; 59
     9c2:	0f 90       	pop	r0
     9c4:	0f be       	out	0x3f, r0	; 63
     9c6:	0f 90       	pop	r0
     9c8:	1f 90       	pop	r1
     9ca:	18 95       	reti

000009cc <__TIMER3_CAPT_vect_routine1>:
     9cc:	08 95       	ret

000009ce <__TIMER3_CAPT_vect_routine>:
     9ce:	fe cf       	rjmp	.-4      	; 0x9cc <__TIMER3_CAPT_vect_routine1>

000009d0 <__vector_25>:
     9d0:	1f 92       	push	r1
     9d2:	0f 92       	push	r0
     9d4:	0f b6       	in	r0, 0x3f	; 63
     9d6:	0f 92       	push	r0
     9d8:	11 24       	eor	r1, r1
     9da:	0b b6       	in	r0, 0x3b	; 59
     9dc:	0f 92       	push	r0
     9de:	2f 93       	push	r18
     9e0:	3f 93       	push	r19
     9e2:	4f 93       	push	r20
     9e4:	5f 93       	push	r21
     9e6:	6f 93       	push	r22
     9e8:	7f 93       	push	r23
     9ea:	8f 93       	push	r24
     9ec:	9f 93       	push	r25
     9ee:	af 93       	push	r26
     9f0:	bf 93       	push	r27
     9f2:	ef 93       	push	r30
     9f4:	ff 93       	push	r31
     9f6:	eb df       	rcall	.-42     	; 0x9ce <__TIMER3_CAPT_vect_routine>
     9f8:	ff 91       	pop	r31
     9fa:	ef 91       	pop	r30
     9fc:	bf 91       	pop	r27
     9fe:	af 91       	pop	r26
     a00:	9f 91       	pop	r25
     a02:	8f 91       	pop	r24
     a04:	7f 91       	pop	r23
     a06:	6f 91       	pop	r22
     a08:	5f 91       	pop	r21
     a0a:	4f 91       	pop	r20
     a0c:	3f 91       	pop	r19
     a0e:	2f 91       	pop	r18
     a10:	0f 90       	pop	r0
     a12:	0b be       	out	0x3b, r0	; 59
     a14:	0f 90       	pop	r0
     a16:	0f be       	out	0x3f, r0	; 63
     a18:	0f 90       	pop	r0
     a1a:	1f 90       	pop	r1
     a1c:	18 95       	reti

00000a1e <__TIMER3_COMPA_vect_routine1>:
     a1e:	08 95       	ret

00000a20 <__TIMER3_COMPA_vect_routine>:
     a20:	fe cf       	rjmp	.-4      	; 0xa1e <__TIMER3_COMPA_vect_routine1>

00000a22 <__vector_26>:
     a22:	1f 92       	push	r1
     a24:	0f 92       	push	r0
     a26:	0f b6       	in	r0, 0x3f	; 63
     a28:	0f 92       	push	r0
     a2a:	11 24       	eor	r1, r1
     a2c:	0b b6       	in	r0, 0x3b	; 59
     a2e:	0f 92       	push	r0
     a30:	2f 93       	push	r18
     a32:	3f 93       	push	r19
     a34:	4f 93       	push	r20
     a36:	5f 93       	push	r21
     a38:	6f 93       	push	r22
     a3a:	7f 93       	push	r23
     a3c:	8f 93       	push	r24
     a3e:	9f 93       	push	r25
     a40:	af 93       	push	r26
     a42:	bf 93       	push	r27
     a44:	ef 93       	push	r30
     a46:	ff 93       	push	r31
     a48:	eb df       	rcall	.-42     	; 0xa20 <__TIMER3_COMPA_vect_routine>
     a4a:	ff 91       	pop	r31
     a4c:	ef 91       	pop	r30
     a4e:	bf 91       	pop	r27
     a50:	af 91       	pop	r26
     a52:	9f 91       	pop	r25
     a54:	8f 91       	pop	r24
     a56:	7f 91       	pop	r23
     a58:	6f 91       	pop	r22
     a5a:	5f 91       	pop	r21
     a5c:	4f 91       	pop	r20
     a5e:	3f 91       	pop	r19
     a60:	2f 91       	pop	r18
     a62:	0f 90       	pop	r0
     a64:	0b be       	out	0x3b, r0	; 59
     a66:	0f 90       	pop	r0
     a68:	0f be       	out	0x3f, r0	; 63
     a6a:	0f 90       	pop	r0
     a6c:	1f 90       	pop	r1
     a6e:	18 95       	reti

00000a70 <__TIMER3_COMPB_vect_routine1>:
     a70:	08 95       	ret

00000a72 <__TIMER3_COMPB_vect_routine>:
     a72:	fe cf       	rjmp	.-4      	; 0xa70 <__TIMER3_COMPB_vect_routine1>

00000a74 <__vector_27>:
     a74:	1f 92       	push	r1
     a76:	0f 92       	push	r0
     a78:	0f b6       	in	r0, 0x3f	; 63
     a7a:	0f 92       	push	r0
     a7c:	11 24       	eor	r1, r1
     a7e:	0b b6       	in	r0, 0x3b	; 59
     a80:	0f 92       	push	r0
     a82:	2f 93       	push	r18
     a84:	3f 93       	push	r19
     a86:	4f 93       	push	r20
     a88:	5f 93       	push	r21
     a8a:	6f 93       	push	r22
     a8c:	7f 93       	push	r23
     a8e:	8f 93       	push	r24
     a90:	9f 93       	push	r25
     a92:	af 93       	push	r26
     a94:	bf 93       	push	r27
     a96:	ef 93       	push	r30
     a98:	ff 93       	push	r31
     a9a:	eb df       	rcall	.-42     	; 0xa72 <__TIMER3_COMPB_vect_routine>
     a9c:	ff 91       	pop	r31
     a9e:	ef 91       	pop	r30
     aa0:	bf 91       	pop	r27
     aa2:	af 91       	pop	r26
     aa4:	9f 91       	pop	r25
     aa6:	8f 91       	pop	r24
     aa8:	7f 91       	pop	r23
     aaa:	6f 91       	pop	r22
     aac:	5f 91       	pop	r21
     aae:	4f 91       	pop	r20
     ab0:	3f 91       	pop	r19
     ab2:	2f 91       	pop	r18
     ab4:	0f 90       	pop	r0
     ab6:	0b be       	out	0x3b, r0	; 59
     ab8:	0f 90       	pop	r0
     aba:	0f be       	out	0x3f, r0	; 63
     abc:	0f 90       	pop	r0
     abe:	1f 90       	pop	r1
     ac0:	18 95       	reti

00000ac2 <__TIMER3_COMPC_vect_routine1>:
     ac2:	08 95       	ret

00000ac4 <__TIMER3_COMPC_vect_routine>:
     ac4:	fe cf       	rjmp	.-4      	; 0xac2 <__TIMER3_COMPC_vect_routine1>

00000ac6 <__vector_28>:
     ac6:	1f 92       	push	r1
     ac8:	0f 92       	push	r0
     aca:	0f b6       	in	r0, 0x3f	; 63
     acc:	0f 92       	push	r0
     ace:	11 24       	eor	r1, r1
     ad0:	0b b6       	in	r0, 0x3b	; 59
     ad2:	0f 92       	push	r0
     ad4:	2f 93       	push	r18
     ad6:	3f 93       	push	r19
     ad8:	4f 93       	push	r20
     ada:	5f 93       	push	r21
     adc:	6f 93       	push	r22
     ade:	7f 93       	push	r23
     ae0:	8f 93       	push	r24
     ae2:	9f 93       	push	r25
     ae4:	af 93       	push	r26
     ae6:	bf 93       	push	r27
     ae8:	ef 93       	push	r30
     aea:	ff 93       	push	r31
     aec:	eb df       	rcall	.-42     	; 0xac4 <__TIMER3_COMPC_vect_routine>
     aee:	ff 91       	pop	r31
     af0:	ef 91       	pop	r30
     af2:	bf 91       	pop	r27
     af4:	af 91       	pop	r26
     af6:	9f 91       	pop	r25
     af8:	8f 91       	pop	r24
     afa:	7f 91       	pop	r23
     afc:	6f 91       	pop	r22
     afe:	5f 91       	pop	r21
     b00:	4f 91       	pop	r20
     b02:	3f 91       	pop	r19
     b04:	2f 91       	pop	r18
     b06:	0f 90       	pop	r0
     b08:	0b be       	out	0x3b, r0	; 59
     b0a:	0f 90       	pop	r0
     b0c:	0f be       	out	0x3f, r0	; 63
     b0e:	0f 90       	pop	r0
     b10:	1f 90       	pop	r1
     b12:	18 95       	reti

00000b14 <__TIMER3_OVF_vect_routine1>:
     b14:	08 95       	ret

00000b16 <__TIMER3_OVF_vect_routine>:
     b16:	fe cf       	rjmp	.-4      	; 0xb14 <__TIMER3_OVF_vect_routine1>

00000b18 <__vector_29>:
     b18:	1f 92       	push	r1
     b1a:	0f 92       	push	r0
     b1c:	0f b6       	in	r0, 0x3f	; 63
     b1e:	0f 92       	push	r0
     b20:	11 24       	eor	r1, r1
     b22:	0b b6       	in	r0, 0x3b	; 59
     b24:	0f 92       	push	r0
     b26:	2f 93       	push	r18
     b28:	3f 93       	push	r19
     b2a:	4f 93       	push	r20
     b2c:	5f 93       	push	r21
     b2e:	6f 93       	push	r22
     b30:	7f 93       	push	r23
     b32:	8f 93       	push	r24
     b34:	9f 93       	push	r25
     b36:	af 93       	push	r26
     b38:	bf 93       	push	r27
     b3a:	ef 93       	push	r30
     b3c:	ff 93       	push	r31
     b3e:	eb df       	rcall	.-42     	; 0xb16 <__TIMER3_OVF_vect_routine>
     b40:	ff 91       	pop	r31
     b42:	ef 91       	pop	r30
     b44:	bf 91       	pop	r27
     b46:	af 91       	pop	r26
     b48:	9f 91       	pop	r25
     b4a:	8f 91       	pop	r24
     b4c:	7f 91       	pop	r23
     b4e:	6f 91       	pop	r22
     b50:	5f 91       	pop	r21
     b52:	4f 91       	pop	r20
     b54:	3f 91       	pop	r19
     b56:	2f 91       	pop	r18
     b58:	0f 90       	pop	r0
     b5a:	0b be       	out	0x3b, r0	; 59
     b5c:	0f 90       	pop	r0
     b5e:	0f be       	out	0x3f, r0	; 63
     b60:	0f 90       	pop	r0
     b62:	1f 90       	pop	r1
     b64:	18 95       	reti

00000b66 <__USART1_RX_vect_routine1>:
     b66:	08 95       	ret

00000b68 <__USART1_RX_vect_routine>:
     b68:	ab c3       	rjmp	.+1878   	; 0x12c0 <USART1_RX_vect_routine1>

00000b6a <__vector_30>:
     b6a:	1f 92       	push	r1
     b6c:	0f 92       	push	r0
     b6e:	0f b6       	in	r0, 0x3f	; 63
     b70:	0f 92       	push	r0
     b72:	11 24       	eor	r1, r1
     b74:	0b b6       	in	r0, 0x3b	; 59
     b76:	0f 92       	push	r0
     b78:	2f 93       	push	r18
     b7a:	3f 93       	push	r19
     b7c:	4f 93       	push	r20
     b7e:	5f 93       	push	r21
     b80:	6f 93       	push	r22
     b82:	7f 93       	push	r23
     b84:	8f 93       	push	r24
     b86:	9f 93       	push	r25
     b88:	af 93       	push	r26
     b8a:	bf 93       	push	r27
     b8c:	ef 93       	push	r30
     b8e:	ff 93       	push	r31
     b90:	eb df       	rcall	.-42     	; 0xb68 <__USART1_RX_vect_routine>
     b92:	ff 91       	pop	r31
     b94:	ef 91       	pop	r30
     b96:	bf 91       	pop	r27
     b98:	af 91       	pop	r26
     b9a:	9f 91       	pop	r25
     b9c:	8f 91       	pop	r24
     b9e:	7f 91       	pop	r23
     ba0:	6f 91       	pop	r22
     ba2:	5f 91       	pop	r21
     ba4:	4f 91       	pop	r20
     ba6:	3f 91       	pop	r19
     ba8:	2f 91       	pop	r18
     baa:	0f 90       	pop	r0
     bac:	0b be       	out	0x3b, r0	; 59
     bae:	0f 90       	pop	r0
     bb0:	0f be       	out	0x3f, r0	; 63
     bb2:	0f 90       	pop	r0
     bb4:	1f 90       	pop	r1
     bb6:	18 95       	reti

00000bb8 <__USART1_UDRE_vect_routine1>:
     bb8:	08 95       	ret

00000bba <__USART1_UDRE_vect_routine>:
     bba:	fe cf       	rjmp	.-4      	; 0xbb8 <__USART1_UDRE_vect_routine1>

00000bbc <__vector_31>:
     bbc:	1f 92       	push	r1
     bbe:	0f 92       	push	r0
     bc0:	0f b6       	in	r0, 0x3f	; 63
     bc2:	0f 92       	push	r0
     bc4:	11 24       	eor	r1, r1
     bc6:	0b b6       	in	r0, 0x3b	; 59
     bc8:	0f 92       	push	r0
     bca:	2f 93       	push	r18
     bcc:	3f 93       	push	r19
     bce:	4f 93       	push	r20
     bd0:	5f 93       	push	r21
     bd2:	6f 93       	push	r22
     bd4:	7f 93       	push	r23
     bd6:	8f 93       	push	r24
     bd8:	9f 93       	push	r25
     bda:	af 93       	push	r26
     bdc:	bf 93       	push	r27
     bde:	ef 93       	push	r30
     be0:	ff 93       	push	r31
     be2:	eb df       	rcall	.-42     	; 0xbba <__USART1_UDRE_vect_routine>
     be4:	ff 91       	pop	r31
     be6:	ef 91       	pop	r30
     be8:	bf 91       	pop	r27
     bea:	af 91       	pop	r26
     bec:	9f 91       	pop	r25
     bee:	8f 91       	pop	r24
     bf0:	7f 91       	pop	r23
     bf2:	6f 91       	pop	r22
     bf4:	5f 91       	pop	r21
     bf6:	4f 91       	pop	r20
     bf8:	3f 91       	pop	r19
     bfa:	2f 91       	pop	r18
     bfc:	0f 90       	pop	r0
     bfe:	0b be       	out	0x3b, r0	; 59
     c00:	0f 90       	pop	r0
     c02:	0f be       	out	0x3f, r0	; 63
     c04:	0f 90       	pop	r0
     c06:	1f 90       	pop	r1
     c08:	18 95       	reti

00000c0a <__USART1_TX_vect_routine1>:
     c0a:	08 95       	ret

00000c0c <__USART1_TX_vect_routine>:
     c0c:	51 c3       	rjmp	.+1698   	; 0x12b0 <USART1_TX_vect_routine1>

00000c0e <__vector_32>:
     c0e:	1f 92       	push	r1
     c10:	0f 92       	push	r0
     c12:	0f b6       	in	r0, 0x3f	; 63
     c14:	0f 92       	push	r0
     c16:	11 24       	eor	r1, r1
     c18:	0b b6       	in	r0, 0x3b	; 59
     c1a:	0f 92       	push	r0
     c1c:	2f 93       	push	r18
     c1e:	3f 93       	push	r19
     c20:	4f 93       	push	r20
     c22:	5f 93       	push	r21
     c24:	6f 93       	push	r22
     c26:	7f 93       	push	r23
     c28:	8f 93       	push	r24
     c2a:	9f 93       	push	r25
     c2c:	af 93       	push	r26
     c2e:	bf 93       	push	r27
     c30:	ef 93       	push	r30
     c32:	ff 93       	push	r31
     c34:	eb df       	rcall	.-42     	; 0xc0c <__USART1_TX_vect_routine>
     c36:	ff 91       	pop	r31
     c38:	ef 91       	pop	r30
     c3a:	bf 91       	pop	r27
     c3c:	af 91       	pop	r26
     c3e:	9f 91       	pop	r25
     c40:	8f 91       	pop	r24
     c42:	7f 91       	pop	r23
     c44:	6f 91       	pop	r22
     c46:	5f 91       	pop	r21
     c48:	4f 91       	pop	r20
     c4a:	3f 91       	pop	r19
     c4c:	2f 91       	pop	r18
     c4e:	0f 90       	pop	r0
     c50:	0b be       	out	0x3b, r0	; 59
     c52:	0f 90       	pop	r0
     c54:	0f be       	out	0x3f, r0	; 63
     c56:	0f 90       	pop	r0
     c58:	1f 90       	pop	r1
     c5a:	18 95       	reti

00000c5c <__TWI_vect_routine1>:
     c5c:	08 95       	ret

00000c5e <__TWI_vect_routine>:
     c5e:	fe cf       	rjmp	.-4      	; 0xc5c <__TWI_vect_routine1>

00000c60 <__vector_33>:
     c60:	1f 92       	push	r1
     c62:	0f 92       	push	r0
     c64:	0f b6       	in	r0, 0x3f	; 63
     c66:	0f 92       	push	r0
     c68:	11 24       	eor	r1, r1
     c6a:	0b b6       	in	r0, 0x3b	; 59
     c6c:	0f 92       	push	r0
     c6e:	2f 93       	push	r18
     c70:	3f 93       	push	r19
     c72:	4f 93       	push	r20
     c74:	5f 93       	push	r21
     c76:	6f 93       	push	r22
     c78:	7f 93       	push	r23
     c7a:	8f 93       	push	r24
     c7c:	9f 93       	push	r25
     c7e:	af 93       	push	r26
     c80:	bf 93       	push	r27
     c82:	ef 93       	push	r30
     c84:	ff 93       	push	r31
     c86:	eb df       	rcall	.-42     	; 0xc5e <__TWI_vect_routine>
     c88:	ff 91       	pop	r31
     c8a:	ef 91       	pop	r30
     c8c:	bf 91       	pop	r27
     c8e:	af 91       	pop	r26
     c90:	9f 91       	pop	r25
     c92:	8f 91       	pop	r24
     c94:	7f 91       	pop	r23
     c96:	6f 91       	pop	r22
     c98:	5f 91       	pop	r21
     c9a:	4f 91       	pop	r20
     c9c:	3f 91       	pop	r19
     c9e:	2f 91       	pop	r18
     ca0:	0f 90       	pop	r0
     ca2:	0b be       	out	0x3b, r0	; 59
     ca4:	0f 90       	pop	r0
     ca6:	0f be       	out	0x3f, r0	; 63
     ca8:	0f 90       	pop	r0
     caa:	1f 90       	pop	r1
     cac:	18 95       	reti

00000cae <__SPM_READY_vect_routine1>:
     cae:	08 95       	ret

00000cb0 <__SPM_READY_vect_routine>:
     cb0:	fe cf       	rjmp	.-4      	; 0xcae <__SPM_READY_vect_routine1>

00000cb2 <__vector_34>:
     cb2:	1f 92       	push	r1
     cb4:	0f 92       	push	r0
     cb6:	0f b6       	in	r0, 0x3f	; 63
     cb8:	0f 92       	push	r0
     cba:	11 24       	eor	r1, r1
     cbc:	0b b6       	in	r0, 0x3b	; 59
     cbe:	0f 92       	push	r0
     cc0:	2f 93       	push	r18
     cc2:	3f 93       	push	r19
     cc4:	4f 93       	push	r20
     cc6:	5f 93       	push	r21
     cc8:	6f 93       	push	r22
     cca:	7f 93       	push	r23
     ccc:	8f 93       	push	r24
     cce:	9f 93       	push	r25
     cd0:	af 93       	push	r26
     cd2:	bf 93       	push	r27
     cd4:	ef 93       	push	r30
     cd6:	ff 93       	push	r31
     cd8:	eb df       	rcall	.-42     	; 0xcb0 <__SPM_READY_vect_routine>
     cda:	ff 91       	pop	r31
     cdc:	ef 91       	pop	r30
     cde:	bf 91       	pop	r27
     ce0:	af 91       	pop	r26
     ce2:	9f 91       	pop	r25
     ce4:	8f 91       	pop	r24
     ce6:	7f 91       	pop	r23
     ce8:	6f 91       	pop	r22
     cea:	5f 91       	pop	r21
     cec:	4f 91       	pop	r20
     cee:	3f 91       	pop	r19
     cf0:	2f 91       	pop	r18
     cf2:	0f 90       	pop	r0
     cf4:	0b be       	out	0x3b, r0	; 59
     cf6:	0f 90       	pop	r0
     cf8:	0f be       	out	0x3f, r0	; 63
     cfa:	0f 90       	pop	r0
     cfc:	1f 90       	pop	r1
     cfe:	18 95       	reti

00000d00 <ASA_DEVICE_set>:
     d00:	1a d0       	rcall	.+52     	; 0xd36 <ASA_STDIO_init>
     d02:	39 d0       	rcall	.+114    	; 0xd76 <ASABUS_ID_init>
     d04:	3c d0       	rcall	.+120    	; 0xd7e <ASABUS_SPI_init>
     d06:	4e e8       	ldi	r20, 0x8E	; 142
     d08:	51 e0       	ldi	r21, 0x01	; 1
     d0a:	61 e0       	ldi	r22, 0x01	; 1
     d0c:	90 e0       	ldi	r25, 0x00	; 0
     d0e:	80 e0       	ldi	r24, 0x00	; 0
     d10:	e6 c2       	rjmp	.+1484   	; 0x12de <EEPROM_get>

00000d12 <stdio_putchar>:
     d12:	cf 93       	push	r28
     d14:	c8 2f       	mov	r28, r24
     d16:	8a 30       	cpi	r24, 0x0A	; 10
     d18:	11 f4       	brne	.+4      	; 0xd1e <stdio_putchar+0xc>
     d1a:	8d e0       	ldi	r24, 0x0D	; 13
     d1c:	fa df       	rcall	.-12     	; 0xd12 <stdio_putchar>
     d1e:	5d 9b       	sbis	0x0b, 5	; 11
     d20:	fe cf       	rjmp	.-4      	; 0xd1e <stdio_putchar+0xc>
     d22:	cc b9       	out	0x0c, r28	; 12
     d24:	90 e0       	ldi	r25, 0x00	; 0
     d26:	80 e0       	ldi	r24, 0x00	; 0
     d28:	cf 91       	pop	r28
     d2a:	08 95       	ret

00000d2c <stdio_getchar>:
     d2c:	5f 9b       	sbis	0x0b, 7	; 11
     d2e:	fe cf       	rjmp	.-4      	; 0xd2c <stdio_getchar>
     d30:	8c b1       	in	r24, 0x0c	; 12
     d32:	90 e0       	ldi	r25, 0x00	; 0
     d34:	08 95       	ret

00000d36 <ASA_STDIO_init>:
     d36:	10 92 90 00 	sts	0x0090, r1	; 0x800090 <__TEXT_REGION_LENGTH__+0x7e0090>
     d3a:	81 e1       	ldi	r24, 0x11	; 17
     d3c:	89 b9       	out	0x09, r24	; 9
     d3e:	8a b1       	in	r24, 0x0a	; 10
     d40:	88 61       	ori	r24, 0x18	; 24
     d42:	8a b9       	out	0x0a, r24	; 10
     d44:	e5 e9       	ldi	r30, 0x95	; 149
     d46:	f0 e0       	ldi	r31, 0x00	; 0
     d48:	80 81       	ld	r24, Z
     d4a:	86 60       	ori	r24, 0x06	; 6
     d4c:	80 83       	st	Z, r24
     d4e:	e3 e9       	ldi	r30, 0x93	; 147
     d50:	f1 e0       	ldi	r31, 0x01	; 1
     d52:	80 e0       	ldi	r24, 0x00	; 0
     d54:	91 e0       	ldi	r25, 0x01	; 1
     d56:	93 83       	std	Z+3, r25	; 0x03
     d58:	82 83       	std	Z+2, r24	; 0x02
     d5a:	91 83       	std	Z+1, r25	; 0x01
     d5c:	80 83       	st	Z, r24
     d5e:	08 95       	ret

00000d60 <ASABUS_ID_set>:
     d60:	88 30       	cpi	r24, 0x08	; 8
     d62:	40 f4       	brcc	.+16     	; 0xd74 <ASABUS_ID_set+0x14>
     d64:	98 b3       	in	r25, 0x18	; 24
     d66:	9f 71       	andi	r25, 0x1F	; 31
     d68:	40 e2       	ldi	r20, 0x20	; 32
     d6a:	84 9f       	mul	r24, r20
     d6c:	90 01       	movw	r18, r0
     d6e:	11 24       	eor	r1, r1
     d70:	92 2b       	or	r25, r18
     d72:	98 bb       	out	0x18, r25	; 24
     d74:	08 95       	ret

00000d76 <ASABUS_ID_init>:
     d76:	87 b3       	in	r24, 0x17	; 23
     d78:	80 6e       	ori	r24, 0xE0	; 224
     d7a:	87 bb       	out	0x17, r24	; 23
     d7c:	08 95       	ret

00000d7e <ASABUS_SPI_init>:
     d7e:	87 b3       	in	r24, 0x17	; 23
     d80:	80 7f       	andi	r24, 0xF0	; 240
     d82:	87 60       	ori	r24, 0x07	; 7
     d84:	87 bb       	out	0x17, r24	; 23
     d86:	82 e5       	ldi	r24, 0x52	; 82
     d88:	8d b9       	out	0x0d, r24	; 13
     d8a:	08 95       	ret

00000d8c <ASABUS_SPI_swap>:
     d8c:	8f b9       	out	0x0f, r24	; 15
     d8e:	77 9b       	sbis	0x0e, 7	; 14
     d90:	fe cf       	rjmp	.-4      	; 0xd8e <ASABUS_SPI_swap+0x2>
     d92:	8f b1       	in	r24, 0x0f	; 15
     d94:	08 95       	ret

00000d96 <M128_SPI_Slave_init>:
     d96:	87 b3       	in	r24, 0x17	; 23
     d98:	88 7f       	andi	r24, 0xF8	; 248
     d9a:	87 bb       	out	0x17, r24	; 23
     d9c:	bb 9a       	sbi	0x17, 3	; 23
     d9e:	80 e4       	ldi	r24, 0x40	; 64
     da0:	8d b9       	out	0x0d, r24	; 13
     da2:	6f 9a       	sbi	0x0d, 7	; 13
     da4:	78 94       	sei
     da6:	08 95       	ret

00000da8 <M128_SPIS_write_byte>:
     da8:	8f b9       	out	0x0f, r24	; 15
     daa:	08 95       	ret

00000dac <M128_SPIS_read_byte>:
     dac:	8f b1       	in	r24, 0x0f	; 15
     dae:	08 95       	ret

00000db0 <M128_SPI_disable_cs>:
     db0:	d7 df       	rcall	.-82     	; 0xd60 <ASABUS_ID_set>
     db2:	e2 e6       	ldi	r30, 0x62	; 98
     db4:	f0 e0       	ldi	r31, 0x00	; 0
     db6:	80 81       	ld	r24, Z
     db8:	8f 7e       	andi	r24, 0xEF	; 239
     dba:	80 83       	st	Z, r24
     dbc:	08 95       	ret

00000dbe <M128_SPI_enable_cs>:
     dbe:	d0 df       	rcall	.-96     	; 0xd60 <ASABUS_ID_set>
     dc0:	e2 e6       	ldi	r30, 0x62	; 98
     dc2:	f0 e0       	ldi	r31, 0x00	; 0
     dc4:	80 81       	ld	r24, Z
     dc6:	80 61       	ori	r24, 0x10	; 16
     dc8:	80 83       	st	Z, r24
     dca:	08 95       	ret

00000dcc <M128_SPI_read_multi_bytes>:
     dcc:	ff 92       	push	r15
     dce:	0f 93       	push	r16
     dd0:	1f 93       	push	r17
     dd2:	cf 93       	push	r28
     dd4:	df 93       	push	r29
     dd6:	00 d0       	rcall	.+0      	; 0xdd8 <M128_SPI_read_multi_bytes+0xc>
     dd8:	00 d0       	rcall	.+0      	; 0xdda <M128_SPI_read_multi_bytes+0xe>
     dda:	cd b7       	in	r28, 0x3d	; 61
     ddc:	de b7       	in	r29, 0x3e	; 62
     dde:	18 2f       	mov	r17, r24
     de0:	f9 2e       	mov	r15, r25
     de2:	06 2f       	mov	r16, r22
     de4:	08 0f       	add	r16, r24
     de6:	ae 01       	movw	r20, r28
     de8:	4f 5f       	subi	r20, 0xFF	; 255
     dea:	5f 4f       	sbci	r21, 0xFF	; 255
     dec:	62 e3       	ldi	r22, 0x32	; 50
     dee:	70 e0       	ldi	r23, 0x00	; 0
     df0:	80 e0       	ldi	r24, 0x00	; 0
     df2:	90 e0       	ldi	r25, 0x00	; 0
     df4:	b1 d2       	rcall	.+1378   	; 0x1358 <HAL_get_expired_time_ms>
     df6:	77 9b       	sbis	0x0e, 7	; 14
     df8:	09 c0       	rjmp	.+18     	; 0xe0c <M128_SPI_read_multi_bytes+0x40>
     dfa:	e1 2f       	mov	r30, r17
     dfc:	ff 2d       	mov	r31, r15
     dfe:	8f b1       	in	r24, 0x0f	; 15
     e00:	81 93       	st	Z+, r24
     e02:	0e 17       	cp	r16, r30
     e04:	69 f0       	breq	.+26     	; 0xe20 <M128_SPI_read_multi_bytes+0x54>
     e06:	1e 2f       	mov	r17, r30
     e08:	ff 2e       	mov	r15, r31
     e0a:	ed cf       	rjmp	.-38     	; 0xde6 <M128_SPI_read_multi_bytes+0x1a>
     e0c:	69 81       	ldd	r22, Y+1	; 0x01
     e0e:	7a 81       	ldd	r23, Y+2	; 0x02
     e10:	8b 81       	ldd	r24, Y+3	; 0x03
     e12:	9c 81       	ldd	r25, Y+4	; 0x04
     e14:	b9 d2       	rcall	.+1394   	; 0x1388 <HAL_timeout_test>
     e16:	88 23       	and	r24, r24
     e18:	71 f3       	breq	.-36     	; 0xdf6 <M128_SPI_read_multi_bytes+0x2a>
     e1a:	81 e0       	ldi	r24, 0x01	; 1
     e1c:	80 93 2f 01 	sts	0x012F, r24	; 0x80012f <SPI_MasterInst+0x14>
     e20:	0f 90       	pop	r0
     e22:	0f 90       	pop	r0
     e24:	0f 90       	pop	r0
     e26:	0f 90       	pop	r0
     e28:	df 91       	pop	r29
     e2a:	cf 91       	pop	r28
     e2c:	1f 91       	pop	r17
     e2e:	0f 91       	pop	r16
     e30:	ff 90       	pop	r15
     e32:	08 95       	ret

00000e34 <M128_SPI_read_byte>:
     e34:	cf 93       	push	r28
     e36:	df 93       	push	r29
     e38:	00 d0       	rcall	.+0      	; 0xe3a <M128_SPI_read_byte+0x6>
     e3a:	00 d0       	rcall	.+0      	; 0xe3c <M128_SPI_read_byte+0x8>
     e3c:	cd b7       	in	r28, 0x3d	; 61
     e3e:	de b7       	in	r29, 0x3e	; 62
     e40:	ae 01       	movw	r20, r28
     e42:	4f 5f       	subi	r20, 0xFF	; 255
     e44:	5f 4f       	sbci	r21, 0xFF	; 255
     e46:	62 e3       	ldi	r22, 0x32	; 50
     e48:	70 e0       	ldi	r23, 0x00	; 0
     e4a:	80 e0       	ldi	r24, 0x00	; 0
     e4c:	90 e0       	ldi	r25, 0x00	; 0
     e4e:	84 d2       	rcall	.+1288   	; 0x1358 <HAL_get_expired_time_ms>
     e50:	77 9b       	sbis	0x0e, 7	; 14
     e52:	02 c0       	rjmp	.+4      	; 0xe58 <M128_SPI_read_byte+0x24>
     e54:	8f b1       	in	r24, 0x0f	; 15
     e56:	0b c0       	rjmp	.+22     	; 0xe6e <M128_SPI_read_byte+0x3a>
     e58:	69 81       	ldd	r22, Y+1	; 0x01
     e5a:	7a 81       	ldd	r23, Y+2	; 0x02
     e5c:	8b 81       	ldd	r24, Y+3	; 0x03
     e5e:	9c 81       	ldd	r25, Y+4	; 0x04
     e60:	93 d2       	rcall	.+1318   	; 0x1388 <HAL_timeout_test>
     e62:	88 23       	and	r24, r24
     e64:	a9 f3       	breq	.-22     	; 0xe50 <M128_SPI_read_byte+0x1c>
     e66:	81 e0       	ldi	r24, 0x01	; 1
     e68:	80 93 2f 01 	sts	0x012F, r24	; 0x80012f <SPI_MasterInst+0x14>
     e6c:	80 e0       	ldi	r24, 0x00	; 0
     e6e:	0f 90       	pop	r0
     e70:	0f 90       	pop	r0
     e72:	0f 90       	pop	r0
     e74:	0f 90       	pop	r0
     e76:	df 91       	pop	r29
     e78:	cf 91       	pop	r28
     e7a:	08 95       	ret

00000e7c <M128_SPI_write_multi_bytes>:
     e7c:	ff 92       	push	r15
     e7e:	0f 93       	push	r16
     e80:	1f 93       	push	r17
     e82:	cf 93       	push	r28
     e84:	df 93       	push	r29
     e86:	00 d0       	rcall	.+0      	; 0xe88 <M128_SPI_write_multi_bytes+0xc>
     e88:	00 d0       	rcall	.+0      	; 0xe8a <M128_SPI_write_multi_bytes+0xe>
     e8a:	cd b7       	in	r28, 0x3d	; 61
     e8c:	de b7       	in	r29, 0x3e	; 62
     e8e:	9c 01       	movw	r18, r24
     e90:	f6 2e       	mov	r15, r22
     e92:	f8 0e       	add	r15, r24
     e94:	f9 01       	movw	r30, r18
     e96:	81 91       	ld	r24, Z+
     e98:	8f 01       	movw	r16, r30
     e9a:	8f b9       	out	0x0f, r24	; 15
     e9c:	ae 01       	movw	r20, r28
     e9e:	4f 5f       	subi	r20, 0xFF	; 255
     ea0:	5f 4f       	sbci	r21, 0xFF	; 255
     ea2:	62 e3       	ldi	r22, 0x32	; 50
     ea4:	70 e0       	ldi	r23, 0x00	; 0
     ea6:	80 e0       	ldi	r24, 0x00	; 0
     ea8:	90 e0       	ldi	r25, 0x00	; 0
     eaa:	56 d2       	rcall	.+1196   	; 0x1358 <HAL_get_expired_time_ms>
     eac:	77 9b       	sbis	0x0e, 7	; 14
     eae:	04 c0       	rjmp	.+8      	; 0xeb8 <M128_SPI_write_multi_bytes+0x3c>
     eb0:	98 01       	movw	r18, r16
     eb2:	f0 12       	cpse	r15, r16
     eb4:	ef cf       	rjmp	.-34     	; 0xe94 <M128_SPI_write_multi_bytes+0x18>
     eb6:	0a c0       	rjmp	.+20     	; 0xecc <M128_SPI_write_multi_bytes+0x50>
     eb8:	69 81       	ldd	r22, Y+1	; 0x01
     eba:	7a 81       	ldd	r23, Y+2	; 0x02
     ebc:	8b 81       	ldd	r24, Y+3	; 0x03
     ebe:	9c 81       	ldd	r25, Y+4	; 0x04
     ec0:	63 d2       	rcall	.+1222   	; 0x1388 <HAL_timeout_test>
     ec2:	88 23       	and	r24, r24
     ec4:	99 f3       	breq	.-26     	; 0xeac <M128_SPI_write_multi_bytes+0x30>
     ec6:	81 e0       	ldi	r24, 0x01	; 1
     ec8:	80 93 2f 01 	sts	0x012F, r24	; 0x80012f <SPI_MasterInst+0x14>
     ecc:	0f 90       	pop	r0
     ece:	0f 90       	pop	r0
     ed0:	0f 90       	pop	r0
     ed2:	0f 90       	pop	r0
     ed4:	df 91       	pop	r29
     ed6:	cf 91       	pop	r28
     ed8:	1f 91       	pop	r17
     eda:	0f 91       	pop	r16
     edc:	ff 90       	pop	r15
     ede:	08 95       	ret

00000ee0 <M128_SPI_write_byte>:
     ee0:	cf 93       	push	r28
     ee2:	df 93       	push	r29
     ee4:	00 d0       	rcall	.+0      	; 0xee6 <M128_SPI_write_byte+0x6>
     ee6:	00 d0       	rcall	.+0      	; 0xee8 <M128_SPI_write_byte+0x8>
     ee8:	cd b7       	in	r28, 0x3d	; 61
     eea:	de b7       	in	r29, 0x3e	; 62
     eec:	8f b9       	out	0x0f, r24	; 15
     eee:	ae 01       	movw	r20, r28
     ef0:	4f 5f       	subi	r20, 0xFF	; 255
     ef2:	5f 4f       	sbci	r21, 0xFF	; 255
     ef4:	62 e3       	ldi	r22, 0x32	; 50
     ef6:	70 e0       	ldi	r23, 0x00	; 0
     ef8:	80 e0       	ldi	r24, 0x00	; 0
     efa:	90 e0       	ldi	r25, 0x00	; 0
     efc:	2d d2       	rcall	.+1114   	; 0x1358 <HAL_get_expired_time_ms>
     efe:	77 99       	sbic	0x0e, 7	; 14
     f00:	0a c0       	rjmp	.+20     	; 0xf16 <M128_SPI_write_byte+0x36>
     f02:	69 81       	ldd	r22, Y+1	; 0x01
     f04:	7a 81       	ldd	r23, Y+2	; 0x02
     f06:	8b 81       	ldd	r24, Y+3	; 0x03
     f08:	9c 81       	ldd	r25, Y+4	; 0x04
     f0a:	3e d2       	rcall	.+1148   	; 0x1388 <HAL_timeout_test>
     f0c:	88 23       	and	r24, r24
     f0e:	b9 f3       	breq	.-18     	; 0xefe <M128_SPI_write_byte+0x1e>
     f10:	81 e0       	ldi	r24, 0x01	; 1
     f12:	80 93 2f 01 	sts	0x012F, r24	; 0x80012f <SPI_MasterInst+0x14>
     f16:	0f 90       	pop	r0
     f18:	0f 90       	pop	r0
     f1a:	0f 90       	pop	r0
     f1c:	0f 90       	pop	r0
     f1e:	df 91       	pop	r29
     f20:	cf 91       	pop	r28
     f22:	08 95       	ret

00000f24 <M128_SPI_multi_swap>:
     f24:	df 92       	push	r13
     f26:	ef 92       	push	r14
     f28:	ff 92       	push	r15
     f2a:	0f 93       	push	r16
     f2c:	1f 93       	push	r17
     f2e:	cf 93       	push	r28
     f30:	df 93       	push	r29
     f32:	00 d0       	rcall	.+0      	; 0xf34 <M128_SPI_multi_swap+0x10>
     f34:	00 d0       	rcall	.+0      	; 0xf36 <M128_SPI_multi_swap+0x12>
     f36:	cd b7       	in	r28, 0x3d	; 61
     f38:	de b7       	in	r29, 0x3e	; 62
     f3a:	d6 2e       	mov	r13, r22
     f3c:	e7 2e       	mov	r14, r23
     f3e:	9c 01       	movw	r18, r24
     f40:	f4 2e       	mov	r15, r20
     f42:	f8 0e       	add	r15, r24
     f44:	f9 01       	movw	r30, r18
     f46:	81 91       	ld	r24, Z+
     f48:	8f 01       	movw	r16, r30
     f4a:	8f b9       	out	0x0f, r24	; 15
     f4c:	ae 01       	movw	r20, r28
     f4e:	4f 5f       	subi	r20, 0xFF	; 255
     f50:	5f 4f       	sbci	r21, 0xFF	; 255
     f52:	62 e3       	ldi	r22, 0x32	; 50
     f54:	70 e0       	ldi	r23, 0x00	; 0
     f56:	80 e0       	ldi	r24, 0x00	; 0
     f58:	90 e0       	ldi	r25, 0x00	; 0
     f5a:	fe d1       	rcall	.+1020   	; 0x1358 <HAL_get_expired_time_ms>
     f5c:	77 9b       	sbis	0x0e, 7	; 14
     f5e:	0a c0       	rjmp	.+20     	; 0xf74 <M128_SPI_multi_swap+0x50>
     f60:	ed 2d       	mov	r30, r13
     f62:	fe 2d       	mov	r31, r14
     f64:	8f b1       	in	r24, 0x0f	; 15
     f66:	81 93       	st	Z+, r24
     f68:	98 01       	movw	r18, r16
     f6a:	f0 16       	cp	r15, r16
     f6c:	69 f0       	breq	.+26     	; 0xf88 <M128_SPI_multi_swap+0x64>
     f6e:	de 2e       	mov	r13, r30
     f70:	ef 2e       	mov	r14, r31
     f72:	e8 cf       	rjmp	.-48     	; 0xf44 <M128_SPI_multi_swap+0x20>
     f74:	69 81       	ldd	r22, Y+1	; 0x01
     f76:	7a 81       	ldd	r23, Y+2	; 0x02
     f78:	8b 81       	ldd	r24, Y+3	; 0x03
     f7a:	9c 81       	ldd	r25, Y+4	; 0x04
     f7c:	05 d2       	rcall	.+1034   	; 0x1388 <HAL_timeout_test>
     f7e:	88 23       	and	r24, r24
     f80:	69 f3       	breq	.-38     	; 0xf5c <M128_SPI_multi_swap+0x38>
     f82:	81 e0       	ldi	r24, 0x01	; 1
     f84:	80 93 2f 01 	sts	0x012F, r24	; 0x80012f <SPI_MasterInst+0x14>
     f88:	0f 90       	pop	r0
     f8a:	0f 90       	pop	r0
     f8c:	0f 90       	pop	r0
     f8e:	0f 90       	pop	r0
     f90:	df 91       	pop	r29
     f92:	cf 91       	pop	r28
     f94:	1f 91       	pop	r17
     f96:	0f 91       	pop	r16
     f98:	ff 90       	pop	r15
     f9a:	ef 90       	pop	r14
     f9c:	df 90       	pop	r13
     f9e:	08 95       	ret

00000fa0 <M128_SPI_swap>:
     fa0:	cf 93       	push	r28
     fa2:	df 93       	push	r29
     fa4:	00 d0       	rcall	.+0      	; 0xfa6 <M128_SPI_swap+0x6>
     fa6:	00 d0       	rcall	.+0      	; 0xfa8 <M128_SPI_swap+0x8>
     fa8:	cd b7       	in	r28, 0x3d	; 61
     faa:	de b7       	in	r29, 0x3e	; 62
     fac:	8f b9       	out	0x0f, r24	; 15
     fae:	ae 01       	movw	r20, r28
     fb0:	4f 5f       	subi	r20, 0xFF	; 255
     fb2:	5f 4f       	sbci	r21, 0xFF	; 255
     fb4:	62 e3       	ldi	r22, 0x32	; 50
     fb6:	70 e0       	ldi	r23, 0x00	; 0
     fb8:	80 e0       	ldi	r24, 0x00	; 0
     fba:	90 e0       	ldi	r25, 0x00	; 0
     fbc:	cd d1       	rcall	.+922    	; 0x1358 <HAL_get_expired_time_ms>
     fbe:	77 9b       	sbis	0x0e, 7	; 14
     fc0:	02 c0       	rjmp	.+4      	; 0xfc6 <M128_SPI_swap+0x26>
     fc2:	8f b1       	in	r24, 0x0f	; 15
     fc4:	0b c0       	rjmp	.+22     	; 0xfdc <M128_SPI_swap+0x3c>
     fc6:	69 81       	ldd	r22, Y+1	; 0x01
     fc8:	7a 81       	ldd	r23, Y+2	; 0x02
     fca:	8b 81       	ldd	r24, Y+3	; 0x03
     fcc:	9c 81       	ldd	r25, Y+4	; 0x04
     fce:	dc d1       	rcall	.+952    	; 0x1388 <HAL_timeout_test>
     fd0:	88 23       	and	r24, r24
     fd2:	a9 f3       	breq	.-22     	; 0xfbe <M128_SPI_swap+0x1e>
     fd4:	81 e0       	ldi	r24, 0x01	; 1
     fd6:	80 93 2f 01 	sts	0x012F, r24	; 0x80012f <SPI_MasterInst+0x14>
     fda:	80 e0       	ldi	r24, 0x00	; 0
     fdc:	0f 90       	pop	r0
     fde:	0f 90       	pop	r0
     fe0:	0f 90       	pop	r0
     fe2:	0f 90       	pop	r0
     fe4:	df 91       	pop	r29
     fe6:	cf 91       	pop	r28
     fe8:	08 95       	ret

00000fea <M128_SPI_Master_init>:
     fea:	c5 de       	rcall	.-630    	; 0xd76 <ASABUS_ID_init>
     fec:	87 b3       	in	r24, 0x17	; 23
     fee:	87 60       	ori	r24, 0x07	; 7
     ff0:	87 bb       	out	0x17, r24	; 23
     ff2:	bb 98       	cbi	0x17, 3	; 23
     ff4:	e1 e6       	ldi	r30, 0x61	; 97
     ff6:	f0 e0       	ldi	r31, 0x00	; 0
     ff8:	80 81       	ld	r24, Z
     ffa:	80 61       	ori	r24, 0x10	; 16
     ffc:	80 83       	st	Z, r24
     ffe:	8d b1       	in	r24, 0x0d	; 13
    1000:	83 65       	ori	r24, 0x53	; 83
    1002:	8d b9       	out	0x0d, r24	; 13
    1004:	08 95       	ret

00001006 <SPI_STC_vect_routine1>:
    1006:	e0 91 10 01 	lds	r30, 0x0110	; 0x800110 <SPI_SlaveInst+0x2>
    100a:	f0 91 11 01 	lds	r31, 0x0111	; 0x800111 <SPI_SlaveInst+0x3>
    100e:	30 97       	sbiw	r30, 0x00	; 0
    1010:	09 f0       	breq	.+2      	; 0x1014 <SPI_STC_vect_routine1+0xe>
    1012:	09 94       	ijmp
    1014:	08 95       	ret

00001016 <M128_UART0_init>:
    1016:	10 92 90 00 	sts	0x0090, r1	; 0x800090 <__TEXT_REGION_LENGTH__+0x7e0090>
    101a:	81 e1       	ldi	r24, 0x11	; 17
    101c:	89 b9       	out	0x09, r24	; 9
    101e:	8a b1       	in	r24, 0x0a	; 10
    1020:	88 61       	ori	r24, 0x18	; 24
    1022:	8a b9       	out	0x0a, r24	; 10
    1024:	e5 e9       	ldi	r30, 0x95	; 149
    1026:	f0 e0       	ldi	r31, 0x00	; 0
    1028:	80 81       	ld	r24, Z
    102a:	86 60       	ori	r24, 0x06	; 6
    102c:	80 83       	st	Z, r24
    102e:	57 9a       	sbi	0x0a, 7	; 10
    1030:	08 95       	ret

00001032 <M128_UART0_write_byte>:
    1032:	5d 9b       	sbis	0x0b, 5	; 11
    1034:	fe cf       	rjmp	.-4      	; 0x1032 <M128_UART0_write_byte>
    1036:	8c b9       	out	0x0c, r24	; 12
    1038:	10 92 8d 01 	sts	0x018D, r1	; 0x80018d <UART0_error_code>
    103c:	08 95       	ret

0000103e <M128_UART0_write_multi_bytes>:
    103e:	68 0f       	add	r22, r24
    1040:	79 2f       	mov	r23, r25
    1042:	71 1d       	adc	r23, r1
    1044:	86 17       	cp	r24, r22
    1046:	97 07       	cpc	r25, r23
    1048:	19 f4       	brne	.+6      	; 0x1050 <M128_UART0_write_multi_bytes+0x12>
    104a:	10 92 8d 01 	sts	0x018D, r1	; 0x80018d <UART0_error_code>
    104e:	08 95       	ret
    1050:	5d 9b       	sbis	0x0b, 5	; 11
    1052:	fe cf       	rjmp	.-4      	; 0x1050 <M128_UART0_write_multi_bytes+0x12>
    1054:	fc 01       	movw	r30, r24
    1056:	21 91       	ld	r18, Z+
    1058:	cf 01       	movw	r24, r30
    105a:	2c b9       	out	0x0c, r18	; 12
    105c:	f3 cf       	rjmp	.-26     	; 0x1044 <M128_UART0_write_multi_bytes+0x6>

0000105e <M128_UART1_init>:
    105e:	10 92 98 00 	sts	0x0098, r1	; 0x800098 <__TEXT_REGION_LENGTH__+0x7e0098>
    1062:	81 e1       	ldi	r24, 0x11	; 17
    1064:	80 93 99 00 	sts	0x0099, r24	; 0x800099 <__TEXT_REGION_LENGTH__+0x7e0099>
    1068:	ea e9       	ldi	r30, 0x9A	; 154
    106a:	f0 e0       	ldi	r31, 0x00	; 0
    106c:	80 81       	ld	r24, Z
    106e:	88 61       	ori	r24, 0x18	; 24
    1070:	80 83       	st	Z, r24
    1072:	ad e9       	ldi	r26, 0x9D	; 157
    1074:	b0 e0       	ldi	r27, 0x00	; 0
    1076:	8c 91       	ld	r24, X
    1078:	86 60       	ori	r24, 0x06	; 6
    107a:	8c 93       	st	X, r24
    107c:	80 81       	ld	r24, Z
    107e:	80 68       	ori	r24, 0x80	; 128
    1080:	80 83       	st	Z, r24
    1082:	08 95       	ret

00001084 <M128_UART1_write_byte>:
    1084:	90 91 9b 00 	lds	r25, 0x009B	; 0x80009b <__TEXT_REGION_LENGTH__+0x7e009b>
    1088:	95 ff       	sbrs	r25, 5
    108a:	fc cf       	rjmp	.-8      	; 0x1084 <M128_UART1_write_byte>
    108c:	80 93 9c 00 	sts	0x009C, r24	; 0x80009c <__TEXT_REGION_LENGTH__+0x7e009c>
    1090:	10 92 8c 01 	sts	0x018C, r1	; 0x80018c <__data_end>
    1094:	08 95       	ret

00001096 <M128_UART1_write_multi_bytes>:
    1096:	68 0f       	add	r22, r24
    1098:	79 2f       	mov	r23, r25
    109a:	71 1d       	adc	r23, r1
    109c:	86 17       	cp	r24, r22
    109e:	97 07       	cpc	r25, r23
    10a0:	19 f4       	brne	.+6      	; 0x10a8 <M128_UART1_write_multi_bytes+0x12>
    10a2:	10 92 8c 01 	sts	0x018C, r1	; 0x80018c <__data_end>
    10a6:	08 95       	ret
    10a8:	20 91 9b 00 	lds	r18, 0x009B	; 0x80009b <__TEXT_REGION_LENGTH__+0x7e009b>
    10ac:	25 ff       	sbrs	r18, 5
    10ae:	fc cf       	rjmp	.-8      	; 0x10a8 <M128_UART1_write_multi_bytes+0x12>
    10b0:	fc 01       	movw	r30, r24
    10b2:	21 91       	ld	r18, Z+
    10b4:	cf 01       	movw	r24, r30
    10b6:	20 93 9c 00 	sts	0x009C, r18	; 0x80009c <__TEXT_REGION_LENGTH__+0x7e009c>
    10ba:	f0 cf       	rjmp	.-32     	; 0x109c <M128_UART1_write_multi_bytes+0x6>

000010bc <M128_UART0_read_bytes>:
    10bc:	cf 92       	push	r12
    10be:	df 92       	push	r13
    10c0:	ef 92       	push	r14
    10c2:	ff 92       	push	r15
    10c4:	0f 93       	push	r16
    10c6:	1f 93       	push	r17
    10c8:	cf 93       	push	r28
    10ca:	df 93       	push	r29
    10cc:	00 d0       	rcall	.+0      	; 0x10ce <M128_UART0_read_bytes+0x12>
    10ce:	00 d0       	rcall	.+0      	; 0x10d0 <M128_UART0_read_bytes+0x14>
    10d0:	cd b7       	in	r28, 0x3d	; 61
    10d2:	de b7       	in	r29, 0x3e	; 62
    10d4:	6c 01       	movw	r12, r24
    10d6:	10 e0       	ldi	r17, 0x00	; 0
    10d8:	00 e0       	ldi	r16, 0x00	; 0
    10da:	e6 2e       	mov	r14, r22
    10dc:	f1 2c       	mov	r15, r1
    10de:	0e 15       	cp	r16, r14
    10e0:	1f 05       	cpc	r17, r15
    10e2:	1c f0       	brlt	.+6      	; 0x10ea <M128_UART0_read_bytes+0x2e>
    10e4:	10 92 8d 01 	sts	0x018D, r1	; 0x80018d <UART0_error_code>
    10e8:	20 c0       	rjmp	.+64     	; 0x112a <__stack+0x2b>
    10ea:	ae 01       	movw	r20, r28
    10ec:	4f 5f       	subi	r20, 0xFF	; 255
    10ee:	5f 4f       	sbci	r21, 0xFF	; 255
    10f0:	62 e3       	ldi	r22, 0x32	; 50
    10f2:	70 e0       	ldi	r23, 0x00	; 0
    10f4:	80 e0       	ldi	r24, 0x00	; 0
    10f6:	90 e0       	ldi	r25, 0x00	; 0
    10f8:	2f d1       	rcall	.+606    	; 0x1358 <HAL_get_expired_time_ms>
    10fa:	5f 9b       	sbis	0x0b, 7	; 11
    10fc:	08 c0       	rjmp	.+16     	; 0x110e <__stack+0xf>
    10fe:	8c b1       	in	r24, 0x0c	; 12
    1100:	f6 01       	movw	r30, r12
    1102:	e0 0f       	add	r30, r16
    1104:	f1 1f       	adc	r31, r17
    1106:	80 83       	st	Z, r24
    1108:	0f 5f       	subi	r16, 0xFF	; 255
    110a:	1f 4f       	sbci	r17, 0xFF	; 255
    110c:	e8 cf       	rjmp	.-48     	; 0x10de <M128_UART0_read_bytes+0x22>
    110e:	69 81       	ldd	r22, Y+1	; 0x01
    1110:	7a 81       	ldd	r23, Y+2	; 0x02
    1112:	8b 81       	ldd	r24, Y+3	; 0x03
    1114:	9c 81       	ldd	r25, Y+4	; 0x04
    1116:	38 d1       	rcall	.+624    	; 0x1388 <HAL_timeout_test>
    1118:	88 23       	and	r24, r24
    111a:	79 f3       	breq	.-34     	; 0x10fa <M128_UART0_read_bytes+0x3e>
    111c:	81 e0       	ldi	r24, 0x01	; 1
    111e:	80 93 8d 01 	sts	0x018D, r24	; 0x80018d <UART0_error_code>
    1122:	0c 0d       	add	r16, r12
    1124:	1d 1d       	adc	r17, r13
    1126:	f8 01       	movw	r30, r16
    1128:	10 82       	st	Z, r1
    112a:	0f 90       	pop	r0
    112c:	0f 90       	pop	r0
    112e:	0f 90       	pop	r0
    1130:	0f 90       	pop	r0
    1132:	df 91       	pop	r29
    1134:	cf 91       	pop	r28
    1136:	1f 91       	pop	r17
    1138:	0f 91       	pop	r16
    113a:	ff 90       	pop	r15
    113c:	ef 90       	pop	r14
    113e:	df 90       	pop	r13
    1140:	cf 90       	pop	r12
    1142:	08 95       	ret

00001144 <M128_UART0_read_byte>:
    1144:	0f 93       	push	r16
    1146:	1f 93       	push	r17
    1148:	cf 93       	push	r28
    114a:	df 93       	push	r29
    114c:	00 d0       	rcall	.+0      	; 0x114e <M128_UART0_read_byte+0xa>
    114e:	00 d0       	rcall	.+0      	; 0x1150 <M128_UART0_read_byte+0xc>
    1150:	cd b7       	in	r28, 0x3d	; 61
    1152:	de b7       	in	r29, 0x3e	; 62
    1154:	8c 01       	movw	r16, r24
    1156:	ae 01       	movw	r20, r28
    1158:	4f 5f       	subi	r20, 0xFF	; 255
    115a:	5f 4f       	sbci	r21, 0xFF	; 255
    115c:	62 e3       	ldi	r22, 0x32	; 50
    115e:	70 e0       	ldi	r23, 0x00	; 0
    1160:	80 e0       	ldi	r24, 0x00	; 0
    1162:	90 e0       	ldi	r25, 0x00	; 0
    1164:	f9 d0       	rcall	.+498    	; 0x1358 <HAL_get_expired_time_ms>
    1166:	5f 9b       	sbis	0x0b, 7	; 11
    1168:	06 c0       	rjmp	.+12     	; 0x1176 <M128_UART0_read_byte+0x32>
    116a:	8c b1       	in	r24, 0x0c	; 12
    116c:	f8 01       	movw	r30, r16
    116e:	80 83       	st	Z, r24
    1170:	10 92 8d 01 	sts	0x018D, r1	; 0x80018d <UART0_error_code>
    1174:	0c c0       	rjmp	.+24     	; 0x118e <M128_UART0_read_byte+0x4a>
    1176:	69 81       	ldd	r22, Y+1	; 0x01
    1178:	7a 81       	ldd	r23, Y+2	; 0x02
    117a:	8b 81       	ldd	r24, Y+3	; 0x03
    117c:	9c 81       	ldd	r25, Y+4	; 0x04
    117e:	04 d1       	rcall	.+520    	; 0x1388 <HAL_timeout_test>
    1180:	88 23       	and	r24, r24
    1182:	89 f3       	breq	.-30     	; 0x1166 <M128_UART0_read_byte+0x22>
    1184:	81 e0       	ldi	r24, 0x01	; 1
    1186:	80 93 8d 01 	sts	0x018D, r24	; 0x80018d <UART0_error_code>
    118a:	f8 01       	movw	r30, r16
    118c:	10 82       	st	Z, r1
    118e:	0f 90       	pop	r0
    1190:	0f 90       	pop	r0
    1192:	0f 90       	pop	r0
    1194:	0f 90       	pop	r0
    1196:	df 91       	pop	r29
    1198:	cf 91       	pop	r28
    119a:	1f 91       	pop	r17
    119c:	0f 91       	pop	r16
    119e:	08 95       	ret

000011a0 <M128_UART1_read_bytes>:
    11a0:	cf 92       	push	r12
    11a2:	df 92       	push	r13
    11a4:	ef 92       	push	r14
    11a6:	ff 92       	push	r15
    11a8:	0f 93       	push	r16
    11aa:	1f 93       	push	r17
    11ac:	cf 93       	push	r28
    11ae:	df 93       	push	r29
    11b0:	00 d0       	rcall	.+0      	; 0x11b2 <M128_UART1_read_bytes+0x12>
    11b2:	00 d0       	rcall	.+0      	; 0x11b4 <M128_UART1_read_bytes+0x14>
    11b4:	cd b7       	in	r28, 0x3d	; 61
    11b6:	de b7       	in	r29, 0x3e	; 62
    11b8:	6c 01       	movw	r12, r24
    11ba:	10 e0       	ldi	r17, 0x00	; 0
    11bc:	00 e0       	ldi	r16, 0x00	; 0
    11be:	e6 2e       	mov	r14, r22
    11c0:	f1 2c       	mov	r15, r1
    11c2:	0e 15       	cp	r16, r14
    11c4:	1f 05       	cpc	r17, r15
    11c6:	1c f0       	brlt	.+6      	; 0x11ce <M128_UART1_read_bytes+0x2e>
    11c8:	10 92 8c 01 	sts	0x018C, r1	; 0x80018c <__data_end>
    11cc:	23 c0       	rjmp	.+70     	; 0x1214 <M128_UART1_read_bytes+0x74>
    11ce:	ae 01       	movw	r20, r28
    11d0:	4f 5f       	subi	r20, 0xFF	; 255
    11d2:	5f 4f       	sbci	r21, 0xFF	; 255
    11d4:	62 e3       	ldi	r22, 0x32	; 50
    11d6:	70 e0       	ldi	r23, 0x00	; 0
    11d8:	80 e0       	ldi	r24, 0x00	; 0
    11da:	90 e0       	ldi	r25, 0x00	; 0
    11dc:	bd d0       	rcall	.+378    	; 0x1358 <HAL_get_expired_time_ms>
    11de:	80 91 9b 00 	lds	r24, 0x009B	; 0x80009b <__TEXT_REGION_LENGTH__+0x7e009b>
    11e2:	87 ff       	sbrs	r24, 7
    11e4:	09 c0       	rjmp	.+18     	; 0x11f8 <M128_UART1_read_bytes+0x58>
    11e6:	80 91 9c 00 	lds	r24, 0x009C	; 0x80009c <__TEXT_REGION_LENGTH__+0x7e009c>
    11ea:	f6 01       	movw	r30, r12
    11ec:	e0 0f       	add	r30, r16
    11ee:	f1 1f       	adc	r31, r17
    11f0:	80 83       	st	Z, r24
    11f2:	0f 5f       	subi	r16, 0xFF	; 255
    11f4:	1f 4f       	sbci	r17, 0xFF	; 255
    11f6:	e5 cf       	rjmp	.-54     	; 0x11c2 <M128_UART1_read_bytes+0x22>
    11f8:	69 81       	ldd	r22, Y+1	; 0x01
    11fa:	7a 81       	ldd	r23, Y+2	; 0x02
    11fc:	8b 81       	ldd	r24, Y+3	; 0x03
    11fe:	9c 81       	ldd	r25, Y+4	; 0x04
    1200:	c3 d0       	rcall	.+390    	; 0x1388 <HAL_timeout_test>
    1202:	88 23       	and	r24, r24
    1204:	61 f3       	breq	.-40     	; 0x11de <M128_UART1_read_bytes+0x3e>
    1206:	81 e0       	ldi	r24, 0x01	; 1
    1208:	80 93 8c 01 	sts	0x018C, r24	; 0x80018c <__data_end>
    120c:	0c 0d       	add	r16, r12
    120e:	1d 1d       	adc	r17, r13
    1210:	f8 01       	movw	r30, r16
    1212:	10 82       	st	Z, r1
    1214:	0f 90       	pop	r0
    1216:	0f 90       	pop	r0
    1218:	0f 90       	pop	r0
    121a:	0f 90       	pop	r0
    121c:	df 91       	pop	r29
    121e:	cf 91       	pop	r28
    1220:	1f 91       	pop	r17
    1222:	0f 91       	pop	r16
    1224:	ff 90       	pop	r15
    1226:	ef 90       	pop	r14
    1228:	df 90       	pop	r13
    122a:	cf 90       	pop	r12
    122c:	08 95       	ret

0000122e <M128_UART1_read_byte>:
    122e:	0f 93       	push	r16
    1230:	1f 93       	push	r17
    1232:	cf 93       	push	r28
    1234:	df 93       	push	r29
    1236:	00 d0       	rcall	.+0      	; 0x1238 <M128_UART1_read_byte+0xa>
    1238:	00 d0       	rcall	.+0      	; 0x123a <M128_UART1_read_byte+0xc>
    123a:	cd b7       	in	r28, 0x3d	; 61
    123c:	de b7       	in	r29, 0x3e	; 62
    123e:	8c 01       	movw	r16, r24
    1240:	ae 01       	movw	r20, r28
    1242:	4f 5f       	subi	r20, 0xFF	; 255
    1244:	5f 4f       	sbci	r21, 0xFF	; 255
    1246:	62 e3       	ldi	r22, 0x32	; 50
    1248:	70 e0       	ldi	r23, 0x00	; 0
    124a:	80 e0       	ldi	r24, 0x00	; 0
    124c:	90 e0       	ldi	r25, 0x00	; 0
    124e:	84 d0       	rcall	.+264    	; 0x1358 <HAL_get_expired_time_ms>
    1250:	80 91 9b 00 	lds	r24, 0x009B	; 0x80009b <__TEXT_REGION_LENGTH__+0x7e009b>
    1254:	87 ff       	sbrs	r24, 7
    1256:	07 c0       	rjmp	.+14     	; 0x1266 <M128_UART1_read_byte+0x38>
    1258:	80 91 9c 00 	lds	r24, 0x009C	; 0x80009c <__TEXT_REGION_LENGTH__+0x7e009c>
    125c:	f8 01       	movw	r30, r16
    125e:	80 83       	st	Z, r24
    1260:	10 92 8c 01 	sts	0x018C, r1	; 0x80018c <__data_end>
    1264:	0c c0       	rjmp	.+24     	; 0x127e <M128_UART1_read_byte+0x50>
    1266:	69 81       	ldd	r22, Y+1	; 0x01
    1268:	7a 81       	ldd	r23, Y+2	; 0x02
    126a:	8b 81       	ldd	r24, Y+3	; 0x03
    126c:	9c 81       	ldd	r25, Y+4	; 0x04
    126e:	8c d0       	rcall	.+280    	; 0x1388 <HAL_timeout_test>
    1270:	88 23       	and	r24, r24
    1272:	71 f3       	breq	.-36     	; 0x1250 <M128_UART1_read_byte+0x22>
    1274:	81 e0       	ldi	r24, 0x01	; 1
    1276:	80 93 8c 01 	sts	0x018C, r24	; 0x80018c <__data_end>
    127a:	f8 01       	movw	r30, r16
    127c:	10 82       	st	Z, r1
    127e:	0f 90       	pop	r0
    1280:	0f 90       	pop	r0
    1282:	0f 90       	pop	r0
    1284:	0f 90       	pop	r0
    1286:	df 91       	pop	r29
    1288:	cf 91       	pop	r28
    128a:	1f 91       	pop	r17
    128c:	0f 91       	pop	r16
    128e:	08 95       	ret

00001290 <USART0_TX_vect_routine1>:
    1290:	e0 91 42 01 	lds	r30, 0x0142	; 0x800142 <UART0_Inst+0x2>
    1294:	f0 91 43 01 	lds	r31, 0x0143	; 0x800143 <UART0_Inst+0x3>
    1298:	30 97       	sbiw	r30, 0x00	; 0
    129a:	09 f0       	breq	.+2      	; 0x129e <USART0_TX_vect_routine1+0xe>
    129c:	09 94       	ijmp
    129e:	08 95       	ret

000012a0 <USART0_RX_vect_routine1>:
    12a0:	e0 91 44 01 	lds	r30, 0x0144	; 0x800144 <UART0_Inst+0x4>
    12a4:	f0 91 45 01 	lds	r31, 0x0145	; 0x800145 <UART0_Inst+0x5>
    12a8:	30 97       	sbiw	r30, 0x00	; 0
    12aa:	09 f0       	breq	.+2      	; 0x12ae <USART0_RX_vect_routine1+0xe>
    12ac:	09 94       	ijmp
    12ae:	08 95       	ret

000012b0 <USART1_TX_vect_routine1>:
    12b0:	e0 91 32 01 	lds	r30, 0x0132	; 0x800132 <UART1_Inst+0x2>
    12b4:	f0 91 33 01 	lds	r31, 0x0133	; 0x800133 <UART1_Inst+0x3>
    12b8:	30 97       	sbiw	r30, 0x00	; 0
    12ba:	09 f0       	breq	.+2      	; 0x12be <USART1_TX_vect_routine1+0xe>
    12bc:	09 94       	ijmp
    12be:	08 95       	ret

000012c0 <USART1_RX_vect_routine1>:
    12c0:	e0 91 34 01 	lds	r30, 0x0134	; 0x800134 <UART1_Inst+0x4>
    12c4:	f0 91 35 01 	lds	r31, 0x0135	; 0x800135 <UART1_Inst+0x5>
    12c8:	30 97       	sbiw	r30, 0x00	; 0
    12ca:	09 f0       	breq	.+2      	; 0x12ce <USART1_RX_vect_routine1+0xe>
    12cc:	09 94       	ijmp
    12ce:	08 95       	ret

000012d0 <EEPROM_set>:
    12d0:	9c 01       	movw	r18, r24
    12d2:	ca 01       	movw	r24, r20
    12d4:	46 2f       	mov	r20, r22
    12d6:	50 e0       	ldi	r21, 0x00	; 0
    12d8:	b9 01       	movw	r22, r18
    12da:	0c 94 3e 15 	jmp	0x2a7c	; 0x2a7c <eeprom_write_block>

000012de <EEPROM_get>:
    12de:	9c 01       	movw	r18, r24
    12e0:	ca 01       	movw	r24, r20
    12e2:	46 2f       	mov	r20, r22
    12e4:	50 e0       	ldi	r21, 0x00	; 0
    12e6:	b9 01       	movw	r22, r18
    12e8:	0c 94 2e 15 	jmp	0x2a5c	; 0x2a5c <eeprom_read_block>

000012ec <HAL_time_init>:
    12ec:	10 92 8f 01 	sts	0x018F, r1	; 0x80018f <HAL_time_global>
    12f0:	10 92 90 01 	sts	0x0190, r1	; 0x800190 <HAL_time_global+0x1>
    12f4:	10 92 91 01 	sts	0x0191, r1	; 0x800191 <HAL_time_global+0x2>
    12f8:	10 92 92 01 	sts	0x0192, r1	; 0x800192 <HAL_time_global+0x3>
    12fc:	08 95       	ret

000012fe <HAL_get_time>:
    12fe:	60 91 8f 01 	lds	r22, 0x018F	; 0x80018f <HAL_time_global>
    1302:	70 91 90 01 	lds	r23, 0x0190	; 0x800190 <HAL_time_global+0x1>
    1306:	80 91 91 01 	lds	r24, 0x0191	; 0x800191 <HAL_time_global+0x2>
    130a:	90 91 92 01 	lds	r25, 0x0192	; 0x800192 <HAL_time_global+0x3>
    130e:	08 95       	ret

00001310 <HAL_get_expired_time_us>:
    1310:	cf 92       	push	r12
    1312:	df 92       	push	r13
    1314:	ef 92       	push	r14
    1316:	ff 92       	push	r15
    1318:	cf 93       	push	r28
    131a:	df 93       	push	r29
    131c:	ea 01       	movw	r28, r20
    131e:	c0 90 8f 01 	lds	r12, 0x018F	; 0x80018f <HAL_time_global>
    1322:	d0 90 90 01 	lds	r13, 0x0190	; 0x800190 <HAL_time_global+0x1>
    1326:	e0 90 91 01 	lds	r14, 0x0191	; 0x800191 <HAL_time_global+0x2>
    132a:	f0 90 92 01 	lds	r15, 0x0192	; 0x800192 <HAL_time_global+0x3>
    132e:	28 ee       	ldi	r18, 0xE8	; 232
    1330:	33 e0       	ldi	r19, 0x03	; 3
    1332:	40 e0       	ldi	r20, 0x00	; 0
    1334:	50 e0       	ldi	r21, 0x00	; 0
    1336:	0e 94 e8 12 	call	0x25d0	; 0x25d0 <__udivmodsi4>
    133a:	c2 0e       	add	r12, r18
    133c:	d3 1e       	adc	r13, r19
    133e:	e4 1e       	adc	r14, r20
    1340:	f5 1e       	adc	r15, r21
    1342:	c8 82       	st	Y, r12
    1344:	d9 82       	std	Y+1, r13	; 0x01
    1346:	ea 82       	std	Y+2, r14	; 0x02
    1348:	fb 82       	std	Y+3, r15	; 0x03
    134a:	df 91       	pop	r29
    134c:	cf 91       	pop	r28
    134e:	ff 90       	pop	r15
    1350:	ef 90       	pop	r14
    1352:	df 90       	pop	r13
    1354:	cf 90       	pop	r12
    1356:	08 95       	ret

00001358 <HAL_get_expired_time_ms>:
    1358:	0f 93       	push	r16
    135a:	1f 93       	push	r17
    135c:	00 91 8f 01 	lds	r16, 0x018F	; 0x80018f <HAL_time_global>
    1360:	10 91 90 01 	lds	r17, 0x0190	; 0x800190 <HAL_time_global+0x1>
    1364:	20 91 91 01 	lds	r18, 0x0191	; 0x800191 <HAL_time_global+0x2>
    1368:	30 91 92 01 	lds	r19, 0x0192	; 0x800192 <HAL_time_global+0x3>
    136c:	dc 01       	movw	r26, r24
    136e:	cb 01       	movw	r24, r22
    1370:	80 0f       	add	r24, r16
    1372:	91 1f       	adc	r25, r17
    1374:	a2 1f       	adc	r26, r18
    1376:	b3 1f       	adc	r27, r19
    1378:	fa 01       	movw	r30, r20
    137a:	80 83       	st	Z, r24
    137c:	91 83       	std	Z+1, r25	; 0x01
    137e:	a2 83       	std	Z+2, r26	; 0x02
    1380:	b3 83       	std	Z+3, r27	; 0x03
    1382:	1f 91       	pop	r17
    1384:	0f 91       	pop	r16
    1386:	08 95       	ret

00001388 <HAL_timeout_test>:
    1388:	0f 93       	push	r16
    138a:	1f 93       	push	r17
    138c:	00 91 8f 01 	lds	r16, 0x018F	; 0x80018f <HAL_time_global>
    1390:	10 91 90 01 	lds	r17, 0x0190	; 0x800190 <HAL_time_global+0x1>
    1394:	20 91 91 01 	lds	r18, 0x0191	; 0x800191 <HAL_time_global+0x2>
    1398:	30 91 92 01 	lds	r19, 0x0192	; 0x800192 <HAL_time_global+0x3>
    139c:	41 e0       	ldi	r20, 0x01	; 1
    139e:	60 17       	cp	r22, r16
    13a0:	71 07       	cpc	r23, r17
    13a2:	82 07       	cpc	r24, r18
    13a4:	93 07       	cpc	r25, r19
    13a6:	08 f0       	brcs	.+2      	; 0x13aa <HAL_timeout_test+0x22>
    13a8:	40 e0       	ldi	r20, 0x00	; 0
    13aa:	84 2f       	mov	r24, r20
    13ac:	1f 91       	pop	r17
    13ae:	0f 91       	pop	r16
    13b0:	08 95       	ret

000013b2 <HAL_delay>:
    13b2:	0f 93       	push	r16
    13b4:	1f 93       	push	r17
    13b6:	00 91 8f 01 	lds	r16, 0x018F	; 0x80018f <HAL_time_global>
    13ba:	10 91 90 01 	lds	r17, 0x0190	; 0x800190 <HAL_time_global+0x1>
    13be:	20 91 91 01 	lds	r18, 0x0191	; 0x800191 <HAL_time_global+0x2>
    13c2:	30 91 92 01 	lds	r19, 0x0192	; 0x800192 <HAL_time_global+0x3>
    13c6:	60 0f       	add	r22, r16
    13c8:	71 1f       	adc	r23, r17
    13ca:	82 1f       	adc	r24, r18
    13cc:	93 1f       	adc	r25, r19
    13ce:	00 91 8f 01 	lds	r16, 0x018F	; 0x80018f <HAL_time_global>
    13d2:	10 91 90 01 	lds	r17, 0x0190	; 0x800190 <HAL_time_global+0x1>
    13d6:	20 91 91 01 	lds	r18, 0x0191	; 0x800191 <HAL_time_global+0x2>
    13da:	30 91 92 01 	lds	r19, 0x0192	; 0x800192 <HAL_time_global+0x3>
    13de:	06 17       	cp	r16, r22
    13e0:	17 07       	cpc	r17, r23
    13e2:	28 07       	cpc	r18, r24
    13e4:	39 07       	cpc	r19, r25
    13e6:	98 f3       	brcs	.-26     	; 0x13ce <HAL_delay+0x1c>
    13e8:	1f 91       	pop	r17
    13ea:	0f 91       	pop	r16
    13ec:	08 95       	ret

000013ee <HAL_tick>:
    13ee:	80 91 8f 01 	lds	r24, 0x018F	; 0x80018f <HAL_time_global>
    13f2:	90 91 90 01 	lds	r25, 0x0190	; 0x800190 <HAL_time_global+0x1>
    13f6:	a0 91 91 01 	lds	r26, 0x0191	; 0x800191 <HAL_time_global+0x2>
    13fa:	b0 91 92 01 	lds	r27, 0x0192	; 0x800192 <HAL_time_global+0x3>
    13fe:	01 96       	adiw	r24, 0x01	; 1
    1400:	a1 1d       	adc	r26, r1
    1402:	b1 1d       	adc	r27, r1
    1404:	80 93 8f 01 	sts	0x018F, r24	; 0x80018f <HAL_time_global>
    1408:	90 93 90 01 	sts	0x0190, r25	; 0x800190 <HAL_time_global+0x1>
    140c:	a0 93 91 01 	sts	0x0191, r26	; 0x800191 <HAL_time_global+0x2>
    1410:	b0 93 92 01 	sts	0x0192, r27	; 0x800192 <HAL_time_global+0x3>
    1414:	08 95       	ret

00001416 <main>:
#define F_CPU 11059200UL
#include "c4mlib.h"


int main()
{ 
    1416:	cf 93       	push	r28
    1418:	df 93       	push	r29
    141a:	00 d0       	rcall	.+0      	; 0x141c <main+0x6>
    141c:	cd b7       	in	r28, 0x3d	; 61
    141e:	de b7       	in	r29, 0x3e	; 62
	ASA_DEVICE_set(); 
    1420:	6f dc       	rcall	.-1826   	; 0xd00 <ASA_DEVICE_set>
// 	printf("Decimate number %d in Hexadecimal is %x\n", (short int)15,(short int)15);    
// 	printf("The scientific form of %f is %E\n\n", 0.001234,0.001234); 
	
	//Q3
	int input;    
	printf("Please keyin a number:");    
    1422:	80 e5       	ldi	r24, 0x50	; 80
    1424:	91 e0       	ldi	r25, 0x01	; 1
    1426:	9f 93       	push	r25
    1428:	8f 93       	push	r24
    142a:	0e 94 8d 14 	call	0x291a	; 0x291a <printf>
	scanf("%d", &input);
    142e:	ce 01       	movw	r24, r28
    1430:	01 96       	adiw	r24, 0x01	; 1
    1432:	9f 93       	push	r25
    1434:	8f 93       	push	r24
    1436:	87 e6       	ldi	r24, 0x67	; 103
    1438:	91 e0       	ldi	r25, 0x01	; 1
    143a:	9f 93       	push	r25
    143c:	8f 93       	push	r24
    143e:	0e 94 a1 14 	call	0x2942	; 0x2942 <scanf>
	printf("\nThe number you keyined is: %d\n\n", input);
    1442:	8a 81       	ldd	r24, Y+2	; 0x02
    1444:	8f 93       	push	r24
    1446:	89 81       	ldd	r24, Y+1	; 0x01
    1448:	8f 93       	push	r24
    144a:	8a e6       	ldi	r24, 0x6A	; 106
    144c:	91 e0       	ldi	r25, 0x01	; 1
    144e:	9f 93       	push	r25
    1450:	8f 93       	push	r24
    1452:	0e 94 8d 14 	call	0x291a	; 0x291a <printf>
    1456:	0f b6       	in	r0, 0x3f	; 63
    1458:	f8 94       	cli
    145a:	de bf       	out	0x3e, r29	; 62
    145c:	0f be       	out	0x3f, r0	; 63
    145e:	cd bf       	out	0x3d, r28	; 61
// 	printf("Please keyin a number:\n");
// 	scanf( "%f", &con);
// 	printf("sizeof(%f):\t %d bytes\n\n",con,(int)sizeof(con));

	return 0;
} 
    1460:	80 e0       	ldi	r24, 0x00	; 0
    1462:	90 e0       	ldi	r25, 0x00	; 0
    1464:	0f 90       	pop	r0
    1466:	0f 90       	pop	r0
    1468:	df 91       	pop	r29
    146a:	cf 91       	pop	r28
    146c:	08 95       	ret

0000146e <vfprintf>:
    146e:	2f 92       	push	r2
    1470:	3f 92       	push	r3
    1472:	4f 92       	push	r4
    1474:	5f 92       	push	r5
    1476:	6f 92       	push	r6
    1478:	7f 92       	push	r7
    147a:	8f 92       	push	r8
    147c:	9f 92       	push	r9
    147e:	af 92       	push	r10
    1480:	bf 92       	push	r11
    1482:	cf 92       	push	r12
    1484:	df 92       	push	r13
    1486:	ef 92       	push	r14
    1488:	ff 92       	push	r15
    148a:	0f 93       	push	r16
    148c:	1f 93       	push	r17
    148e:	cf 93       	push	r28
    1490:	df 93       	push	r29
    1492:	cd b7       	in	r28, 0x3d	; 61
    1494:	de b7       	in	r29, 0x3e	; 62
    1496:	60 97       	sbiw	r28, 0x10	; 16
    1498:	0f b6       	in	r0, 0x3f	; 63
    149a:	f8 94       	cli
    149c:	de bf       	out	0x3e, r29	; 62
    149e:	0f be       	out	0x3f, r0	; 63
    14a0:	cd bf       	out	0x3d, r28	; 61
    14a2:	7c 01       	movw	r14, r24
    14a4:	1b 01       	movw	r2, r22
    14a6:	6a 01       	movw	r12, r20
    14a8:	fc 01       	movw	r30, r24
    14aa:	17 82       	std	Z+7, r1	; 0x07
    14ac:	16 82       	std	Z+6, r1	; 0x06
    14ae:	83 81       	ldd	r24, Z+3	; 0x03
    14b0:	81 ff       	sbrs	r24, 1
    14b2:	39 c3       	rjmp	.+1650   	; 0x1b26 <vfprintf+0x6b8>
    14b4:	9e 01       	movw	r18, r28
    14b6:	2f 5f       	subi	r18, 0xFF	; 255
    14b8:	3f 4f       	sbci	r19, 0xFF	; 255
    14ba:	39 01       	movw	r6, r18
    14bc:	f7 01       	movw	r30, r14
    14be:	93 81       	ldd	r25, Z+3	; 0x03
    14c0:	f1 01       	movw	r30, r2
    14c2:	93 fd       	sbrc	r25, 3
    14c4:	85 91       	lpm	r24, Z+
    14c6:	93 ff       	sbrs	r25, 3
    14c8:	81 91       	ld	r24, Z+
    14ca:	1f 01       	movw	r2, r30
    14cc:	88 23       	and	r24, r24
    14ce:	09 f4       	brne	.+2      	; 0x14d2 <vfprintf+0x64>
    14d0:	26 c3       	rjmp	.+1612   	; 0x1b1e <vfprintf+0x6b0>
    14d2:	85 32       	cpi	r24, 0x25	; 37
    14d4:	39 f4       	brne	.+14     	; 0x14e4 <vfprintf+0x76>
    14d6:	93 fd       	sbrc	r25, 3
    14d8:	85 91       	lpm	r24, Z+
    14da:	93 ff       	sbrs	r25, 3
    14dc:	81 91       	ld	r24, Z+
    14de:	1f 01       	movw	r2, r30
    14e0:	85 32       	cpi	r24, 0x25	; 37
    14e2:	39 f4       	brne	.+14     	; 0x14f2 <vfprintf+0x84>
    14e4:	b7 01       	movw	r22, r14
    14e6:	90 e0       	ldi	r25, 0x00	; 0
    14e8:	0e 94 51 14 	call	0x28a2	; 0x28a2 <fputc>
    14ec:	56 01       	movw	r10, r12
    14ee:	65 01       	movw	r12, r10
    14f0:	e5 cf       	rjmp	.-54     	; 0x14bc <vfprintf+0x4e>
    14f2:	10 e0       	ldi	r17, 0x00	; 0
    14f4:	51 2c       	mov	r5, r1
    14f6:	91 2c       	mov	r9, r1
    14f8:	ff e1       	ldi	r31, 0x1F	; 31
    14fa:	f9 15       	cp	r31, r9
    14fc:	d8 f0       	brcs	.+54     	; 0x1534 <vfprintf+0xc6>
    14fe:	8b 32       	cpi	r24, 0x2B	; 43
    1500:	79 f0       	breq	.+30     	; 0x1520 <vfprintf+0xb2>
    1502:	38 f4       	brcc	.+14     	; 0x1512 <vfprintf+0xa4>
    1504:	80 32       	cpi	r24, 0x20	; 32
    1506:	79 f0       	breq	.+30     	; 0x1526 <vfprintf+0xb8>
    1508:	83 32       	cpi	r24, 0x23	; 35
    150a:	a1 f4       	brne	.+40     	; 0x1534 <vfprintf+0xc6>
    150c:	f9 2d       	mov	r31, r9
    150e:	f0 61       	ori	r31, 0x10	; 16
    1510:	2e c0       	rjmp	.+92     	; 0x156e <vfprintf+0x100>
    1512:	8d 32       	cpi	r24, 0x2D	; 45
    1514:	61 f0       	breq	.+24     	; 0x152e <vfprintf+0xc0>
    1516:	80 33       	cpi	r24, 0x30	; 48
    1518:	69 f4       	brne	.+26     	; 0x1534 <vfprintf+0xc6>
    151a:	29 2d       	mov	r18, r9
    151c:	21 60       	ori	r18, 0x01	; 1
    151e:	2d c0       	rjmp	.+90     	; 0x157a <vfprintf+0x10c>
    1520:	39 2d       	mov	r19, r9
    1522:	32 60       	ori	r19, 0x02	; 2
    1524:	93 2e       	mov	r9, r19
    1526:	89 2d       	mov	r24, r9
    1528:	84 60       	ori	r24, 0x04	; 4
    152a:	98 2e       	mov	r9, r24
    152c:	2a c0       	rjmp	.+84     	; 0x1582 <vfprintf+0x114>
    152e:	e9 2d       	mov	r30, r9
    1530:	e8 60       	ori	r30, 0x08	; 8
    1532:	15 c0       	rjmp	.+42     	; 0x155e <vfprintf+0xf0>
    1534:	97 fc       	sbrc	r9, 7
    1536:	2d c0       	rjmp	.+90     	; 0x1592 <vfprintf+0x124>
    1538:	20 ed       	ldi	r18, 0xD0	; 208
    153a:	28 0f       	add	r18, r24
    153c:	2a 30       	cpi	r18, 0x0A	; 10
    153e:	88 f4       	brcc	.+34     	; 0x1562 <vfprintf+0xf4>
    1540:	96 fe       	sbrs	r9, 6
    1542:	06 c0       	rjmp	.+12     	; 0x1550 <vfprintf+0xe2>
    1544:	3a e0       	ldi	r19, 0x0A	; 10
    1546:	13 9f       	mul	r17, r19
    1548:	20 0d       	add	r18, r0
    154a:	11 24       	eor	r1, r1
    154c:	12 2f       	mov	r17, r18
    154e:	19 c0       	rjmp	.+50     	; 0x1582 <vfprintf+0x114>
    1550:	8a e0       	ldi	r24, 0x0A	; 10
    1552:	58 9e       	mul	r5, r24
    1554:	20 0d       	add	r18, r0
    1556:	11 24       	eor	r1, r1
    1558:	52 2e       	mov	r5, r18
    155a:	e9 2d       	mov	r30, r9
    155c:	e0 62       	ori	r30, 0x20	; 32
    155e:	9e 2e       	mov	r9, r30
    1560:	10 c0       	rjmp	.+32     	; 0x1582 <vfprintf+0x114>
    1562:	8e 32       	cpi	r24, 0x2E	; 46
    1564:	31 f4       	brne	.+12     	; 0x1572 <vfprintf+0x104>
    1566:	96 fc       	sbrc	r9, 6
    1568:	da c2       	rjmp	.+1460   	; 0x1b1e <vfprintf+0x6b0>
    156a:	f9 2d       	mov	r31, r9
    156c:	f0 64       	ori	r31, 0x40	; 64
    156e:	9f 2e       	mov	r9, r31
    1570:	08 c0       	rjmp	.+16     	; 0x1582 <vfprintf+0x114>
    1572:	8c 36       	cpi	r24, 0x6C	; 108
    1574:	21 f4       	brne	.+8      	; 0x157e <vfprintf+0x110>
    1576:	29 2d       	mov	r18, r9
    1578:	20 68       	ori	r18, 0x80	; 128
    157a:	92 2e       	mov	r9, r18
    157c:	02 c0       	rjmp	.+4      	; 0x1582 <vfprintf+0x114>
    157e:	88 36       	cpi	r24, 0x68	; 104
    1580:	41 f4       	brne	.+16     	; 0x1592 <vfprintf+0x124>
    1582:	f1 01       	movw	r30, r2
    1584:	93 fd       	sbrc	r25, 3
    1586:	85 91       	lpm	r24, Z+
    1588:	93 ff       	sbrs	r25, 3
    158a:	81 91       	ld	r24, Z+
    158c:	1f 01       	movw	r2, r30
    158e:	81 11       	cpse	r24, r1
    1590:	b3 cf       	rjmp	.-154    	; 0x14f8 <vfprintf+0x8a>
    1592:	9b eb       	ldi	r25, 0xBB	; 187
    1594:	98 0f       	add	r25, r24
    1596:	93 30       	cpi	r25, 0x03	; 3
    1598:	20 f4       	brcc	.+8      	; 0x15a2 <vfprintf+0x134>
    159a:	99 2d       	mov	r25, r9
    159c:	90 61       	ori	r25, 0x10	; 16
    159e:	80 5e       	subi	r24, 0xE0	; 224
    15a0:	07 c0       	rjmp	.+14     	; 0x15b0 <vfprintf+0x142>
    15a2:	9b e9       	ldi	r25, 0x9B	; 155
    15a4:	98 0f       	add	r25, r24
    15a6:	93 30       	cpi	r25, 0x03	; 3
    15a8:	08 f0       	brcs	.+2      	; 0x15ac <vfprintf+0x13e>
    15aa:	66 c1       	rjmp	.+716    	; 0x1878 <vfprintf+0x40a>
    15ac:	99 2d       	mov	r25, r9
    15ae:	9f 7e       	andi	r25, 0xEF	; 239
    15b0:	96 ff       	sbrs	r25, 6
    15b2:	16 e0       	ldi	r17, 0x06	; 6
    15b4:	9f 73       	andi	r25, 0x3F	; 63
    15b6:	99 2e       	mov	r9, r25
    15b8:	85 36       	cpi	r24, 0x65	; 101
    15ba:	19 f4       	brne	.+6      	; 0x15c2 <vfprintf+0x154>
    15bc:	90 64       	ori	r25, 0x40	; 64
    15be:	99 2e       	mov	r9, r25
    15c0:	08 c0       	rjmp	.+16     	; 0x15d2 <vfprintf+0x164>
    15c2:	86 36       	cpi	r24, 0x66	; 102
    15c4:	21 f4       	brne	.+8      	; 0x15ce <vfprintf+0x160>
    15c6:	39 2f       	mov	r19, r25
    15c8:	30 68       	ori	r19, 0x80	; 128
    15ca:	93 2e       	mov	r9, r19
    15cc:	02 c0       	rjmp	.+4      	; 0x15d2 <vfprintf+0x164>
    15ce:	11 11       	cpse	r17, r1
    15d0:	11 50       	subi	r17, 0x01	; 1
    15d2:	97 fe       	sbrs	r9, 7
    15d4:	07 c0       	rjmp	.+14     	; 0x15e4 <vfprintf+0x176>
    15d6:	1c 33       	cpi	r17, 0x3C	; 60
    15d8:	50 f4       	brcc	.+20     	; 0x15ee <vfprintf+0x180>
    15da:	44 24       	eor	r4, r4
    15dc:	43 94       	inc	r4
    15de:	41 0e       	add	r4, r17
    15e0:	27 e0       	ldi	r18, 0x07	; 7
    15e2:	0b c0       	rjmp	.+22     	; 0x15fa <vfprintf+0x18c>
    15e4:	18 30       	cpi	r17, 0x08	; 8
    15e6:	38 f0       	brcs	.+14     	; 0x15f6 <vfprintf+0x188>
    15e8:	27 e0       	ldi	r18, 0x07	; 7
    15ea:	17 e0       	ldi	r17, 0x07	; 7
    15ec:	05 c0       	rjmp	.+10     	; 0x15f8 <vfprintf+0x18a>
    15ee:	27 e0       	ldi	r18, 0x07	; 7
    15f0:	9c e3       	ldi	r25, 0x3C	; 60
    15f2:	49 2e       	mov	r4, r25
    15f4:	02 c0       	rjmp	.+4      	; 0x15fa <vfprintf+0x18c>
    15f6:	21 2f       	mov	r18, r17
    15f8:	41 2c       	mov	r4, r1
    15fa:	56 01       	movw	r10, r12
    15fc:	84 e0       	ldi	r24, 0x04	; 4
    15fe:	a8 0e       	add	r10, r24
    1600:	b1 1c       	adc	r11, r1
    1602:	f6 01       	movw	r30, r12
    1604:	60 81       	ld	r22, Z
    1606:	71 81       	ldd	r23, Z+1	; 0x01
    1608:	82 81       	ldd	r24, Z+2	; 0x02
    160a:	93 81       	ldd	r25, Z+3	; 0x03
    160c:	04 2d       	mov	r16, r4
    160e:	a3 01       	movw	r20, r6
    1610:	0e 94 0a 13 	call	0x2614	; 0x2614 <__ftoa_engine>
    1614:	6c 01       	movw	r12, r24
    1616:	f9 81       	ldd	r31, Y+1	; 0x01
    1618:	fc 87       	std	Y+12, r31	; 0x0c
    161a:	f0 ff       	sbrs	r31, 0
    161c:	02 c0       	rjmp	.+4      	; 0x1622 <vfprintf+0x1b4>
    161e:	f3 ff       	sbrs	r31, 3
    1620:	06 c0       	rjmp	.+12     	; 0x162e <vfprintf+0x1c0>
    1622:	91 fc       	sbrc	r9, 1
    1624:	06 c0       	rjmp	.+12     	; 0x1632 <vfprintf+0x1c4>
    1626:	92 fe       	sbrs	r9, 2
    1628:	06 c0       	rjmp	.+12     	; 0x1636 <vfprintf+0x1c8>
    162a:	00 e2       	ldi	r16, 0x20	; 32
    162c:	05 c0       	rjmp	.+10     	; 0x1638 <vfprintf+0x1ca>
    162e:	0d e2       	ldi	r16, 0x2D	; 45
    1630:	03 c0       	rjmp	.+6      	; 0x1638 <vfprintf+0x1ca>
    1632:	0b e2       	ldi	r16, 0x2B	; 43
    1634:	01 c0       	rjmp	.+2      	; 0x1638 <vfprintf+0x1ca>
    1636:	00 e0       	ldi	r16, 0x00	; 0
    1638:	8c 85       	ldd	r24, Y+12	; 0x0c
    163a:	8c 70       	andi	r24, 0x0C	; 12
    163c:	19 f0       	breq	.+6      	; 0x1644 <vfprintf+0x1d6>
    163e:	01 11       	cpse	r16, r1
    1640:	50 c2       	rjmp	.+1184   	; 0x1ae2 <vfprintf+0x674>
    1642:	8d c2       	rjmp	.+1306   	; 0x1b5e <vfprintf+0x6f0>
    1644:	97 fe       	sbrs	r9, 7
    1646:	10 c0       	rjmp	.+32     	; 0x1668 <vfprintf+0x1fa>
    1648:	4c 0c       	add	r4, r12
    164a:	fc 85       	ldd	r31, Y+12	; 0x0c
    164c:	f4 ff       	sbrs	r31, 4
    164e:	04 c0       	rjmp	.+8      	; 0x1658 <vfprintf+0x1ea>
    1650:	8a 81       	ldd	r24, Y+2	; 0x02
    1652:	81 33       	cpi	r24, 0x31	; 49
    1654:	09 f4       	brne	.+2      	; 0x1658 <vfprintf+0x1ea>
    1656:	4a 94       	dec	r4
    1658:	14 14       	cp	r1, r4
    165a:	74 f5       	brge	.+92     	; 0x16b8 <vfprintf+0x24a>
    165c:	28 e0       	ldi	r18, 0x08	; 8
    165e:	24 15       	cp	r18, r4
    1660:	78 f5       	brcc	.+94     	; 0x16c0 <vfprintf+0x252>
    1662:	88 e0       	ldi	r24, 0x08	; 8
    1664:	48 2e       	mov	r4, r24
    1666:	2c c0       	rjmp	.+88     	; 0x16c0 <vfprintf+0x252>
    1668:	96 fc       	sbrc	r9, 6
    166a:	2a c0       	rjmp	.+84     	; 0x16c0 <vfprintf+0x252>
    166c:	81 2f       	mov	r24, r17
    166e:	90 e0       	ldi	r25, 0x00	; 0
    1670:	8c 15       	cp	r24, r12
    1672:	9d 05       	cpc	r25, r13
    1674:	9c f0       	brlt	.+38     	; 0x169c <vfprintf+0x22e>
    1676:	3c ef       	ldi	r19, 0xFC	; 252
    1678:	c3 16       	cp	r12, r19
    167a:	3f ef       	ldi	r19, 0xFF	; 255
    167c:	d3 06       	cpc	r13, r19
    167e:	74 f0       	brlt	.+28     	; 0x169c <vfprintf+0x22e>
    1680:	89 2d       	mov	r24, r9
    1682:	80 68       	ori	r24, 0x80	; 128
    1684:	98 2e       	mov	r9, r24
    1686:	0a c0       	rjmp	.+20     	; 0x169c <vfprintf+0x22e>
    1688:	e2 e0       	ldi	r30, 0x02	; 2
    168a:	f0 e0       	ldi	r31, 0x00	; 0
    168c:	ec 0f       	add	r30, r28
    168e:	fd 1f       	adc	r31, r29
    1690:	e1 0f       	add	r30, r17
    1692:	f1 1d       	adc	r31, r1
    1694:	80 81       	ld	r24, Z
    1696:	80 33       	cpi	r24, 0x30	; 48
    1698:	19 f4       	brne	.+6      	; 0x16a0 <vfprintf+0x232>
    169a:	11 50       	subi	r17, 0x01	; 1
    169c:	11 11       	cpse	r17, r1
    169e:	f4 cf       	rjmp	.-24     	; 0x1688 <vfprintf+0x21a>
    16a0:	97 fe       	sbrs	r9, 7
    16a2:	0e c0       	rjmp	.+28     	; 0x16c0 <vfprintf+0x252>
    16a4:	44 24       	eor	r4, r4
    16a6:	43 94       	inc	r4
    16a8:	41 0e       	add	r4, r17
    16aa:	81 2f       	mov	r24, r17
    16ac:	90 e0       	ldi	r25, 0x00	; 0
    16ae:	c8 16       	cp	r12, r24
    16b0:	d9 06       	cpc	r13, r25
    16b2:	2c f4       	brge	.+10     	; 0x16be <vfprintf+0x250>
    16b4:	1c 19       	sub	r17, r12
    16b6:	04 c0       	rjmp	.+8      	; 0x16c0 <vfprintf+0x252>
    16b8:	44 24       	eor	r4, r4
    16ba:	43 94       	inc	r4
    16bc:	01 c0       	rjmp	.+2      	; 0x16c0 <vfprintf+0x252>
    16be:	10 e0       	ldi	r17, 0x00	; 0
    16c0:	97 fe       	sbrs	r9, 7
    16c2:	06 c0       	rjmp	.+12     	; 0x16d0 <vfprintf+0x262>
    16c4:	1c 14       	cp	r1, r12
    16c6:	1d 04       	cpc	r1, r13
    16c8:	34 f4       	brge	.+12     	; 0x16d6 <vfprintf+0x268>
    16ca:	c6 01       	movw	r24, r12
    16cc:	01 96       	adiw	r24, 0x01	; 1
    16ce:	05 c0       	rjmp	.+10     	; 0x16da <vfprintf+0x26c>
    16d0:	85 e0       	ldi	r24, 0x05	; 5
    16d2:	90 e0       	ldi	r25, 0x00	; 0
    16d4:	02 c0       	rjmp	.+4      	; 0x16da <vfprintf+0x26c>
    16d6:	81 e0       	ldi	r24, 0x01	; 1
    16d8:	90 e0       	ldi	r25, 0x00	; 0
    16da:	01 11       	cpse	r16, r1
    16dc:	01 96       	adiw	r24, 0x01	; 1
    16de:	11 23       	and	r17, r17
    16e0:	31 f0       	breq	.+12     	; 0x16ee <vfprintf+0x280>
    16e2:	21 2f       	mov	r18, r17
    16e4:	30 e0       	ldi	r19, 0x00	; 0
    16e6:	2f 5f       	subi	r18, 0xFF	; 255
    16e8:	3f 4f       	sbci	r19, 0xFF	; 255
    16ea:	82 0f       	add	r24, r18
    16ec:	93 1f       	adc	r25, r19
    16ee:	25 2d       	mov	r18, r5
    16f0:	30 e0       	ldi	r19, 0x00	; 0
    16f2:	82 17       	cp	r24, r18
    16f4:	93 07       	cpc	r25, r19
    16f6:	14 f4       	brge	.+4      	; 0x16fc <vfprintf+0x28e>
    16f8:	58 1a       	sub	r5, r24
    16fa:	01 c0       	rjmp	.+2      	; 0x16fe <vfprintf+0x290>
    16fc:	51 2c       	mov	r5, r1
    16fe:	89 2d       	mov	r24, r9
    1700:	89 70       	andi	r24, 0x09	; 9
    1702:	49 f4       	brne	.+18     	; 0x1716 <vfprintf+0x2a8>
    1704:	55 20       	and	r5, r5
    1706:	39 f0       	breq	.+14     	; 0x1716 <vfprintf+0x2a8>
    1708:	b7 01       	movw	r22, r14
    170a:	80 e2       	ldi	r24, 0x20	; 32
    170c:	90 e0       	ldi	r25, 0x00	; 0
    170e:	0e 94 51 14 	call	0x28a2	; 0x28a2 <fputc>
    1712:	5a 94       	dec	r5
    1714:	f7 cf       	rjmp	.-18     	; 0x1704 <vfprintf+0x296>
    1716:	00 23       	and	r16, r16
    1718:	29 f0       	breq	.+10     	; 0x1724 <vfprintf+0x2b6>
    171a:	b7 01       	movw	r22, r14
    171c:	80 2f       	mov	r24, r16
    171e:	90 e0       	ldi	r25, 0x00	; 0
    1720:	0e 94 51 14 	call	0x28a2	; 0x28a2 <fputc>
    1724:	93 fc       	sbrc	r9, 3
    1726:	09 c0       	rjmp	.+18     	; 0x173a <vfprintf+0x2cc>
    1728:	55 20       	and	r5, r5
    172a:	39 f0       	breq	.+14     	; 0x173a <vfprintf+0x2cc>
    172c:	b7 01       	movw	r22, r14
    172e:	80 e3       	ldi	r24, 0x30	; 48
    1730:	90 e0       	ldi	r25, 0x00	; 0
    1732:	0e 94 51 14 	call	0x28a2	; 0x28a2 <fputc>
    1736:	5a 94       	dec	r5
    1738:	f7 cf       	rjmp	.-18     	; 0x1728 <vfprintf+0x2ba>
    173a:	97 fe       	sbrs	r9, 7
    173c:	4c c0       	rjmp	.+152    	; 0x17d6 <vfprintf+0x368>
    173e:	46 01       	movw	r8, r12
    1740:	d7 fe       	sbrs	r13, 7
    1742:	02 c0       	rjmp	.+4      	; 0x1748 <vfprintf+0x2da>
    1744:	81 2c       	mov	r8, r1
    1746:	91 2c       	mov	r9, r1
    1748:	c6 01       	movw	r24, r12
    174a:	88 19       	sub	r24, r8
    174c:	99 09       	sbc	r25, r9
    174e:	f3 01       	movw	r30, r6
    1750:	e8 0f       	add	r30, r24
    1752:	f9 1f       	adc	r31, r25
    1754:	fe 87       	std	Y+14, r31	; 0x0e
    1756:	ed 87       	std	Y+13, r30	; 0x0d
    1758:	96 01       	movw	r18, r12
    175a:	24 19       	sub	r18, r4
    175c:	31 09       	sbc	r19, r1
    175e:	38 8b       	std	Y+16, r19	; 0x10
    1760:	2f 87       	std	Y+15, r18	; 0x0f
    1762:	01 2f       	mov	r16, r17
    1764:	10 e0       	ldi	r17, 0x00	; 0
    1766:	11 95       	neg	r17
    1768:	01 95       	neg	r16
    176a:	11 09       	sbc	r17, r1
    176c:	3f ef       	ldi	r19, 0xFF	; 255
    176e:	83 16       	cp	r8, r19
    1770:	93 06       	cpc	r9, r19
    1772:	29 f4       	brne	.+10     	; 0x177e <vfprintf+0x310>
    1774:	b7 01       	movw	r22, r14
    1776:	8e e2       	ldi	r24, 0x2E	; 46
    1778:	90 e0       	ldi	r25, 0x00	; 0
    177a:	0e 94 51 14 	call	0x28a2	; 0x28a2 <fputc>
    177e:	c8 14       	cp	r12, r8
    1780:	d9 04       	cpc	r13, r9
    1782:	4c f0       	brlt	.+18     	; 0x1796 <vfprintf+0x328>
    1784:	8f 85       	ldd	r24, Y+15	; 0x0f
    1786:	98 89       	ldd	r25, Y+16	; 0x10
    1788:	88 15       	cp	r24, r8
    178a:	99 05       	cpc	r25, r9
    178c:	24 f4       	brge	.+8      	; 0x1796 <vfprintf+0x328>
    178e:	ed 85       	ldd	r30, Y+13	; 0x0d
    1790:	fe 85       	ldd	r31, Y+14	; 0x0e
    1792:	81 81       	ldd	r24, Z+1	; 0x01
    1794:	01 c0       	rjmp	.+2      	; 0x1798 <vfprintf+0x32a>
    1796:	80 e3       	ldi	r24, 0x30	; 48
    1798:	f1 e0       	ldi	r31, 0x01	; 1
    179a:	8f 1a       	sub	r8, r31
    179c:	91 08       	sbc	r9, r1
    179e:	2d 85       	ldd	r18, Y+13	; 0x0d
    17a0:	3e 85       	ldd	r19, Y+14	; 0x0e
    17a2:	2f 5f       	subi	r18, 0xFF	; 255
    17a4:	3f 4f       	sbci	r19, 0xFF	; 255
    17a6:	3e 87       	std	Y+14, r19	; 0x0e
    17a8:	2d 87       	std	Y+13, r18	; 0x0d
    17aa:	80 16       	cp	r8, r16
    17ac:	91 06       	cpc	r9, r17
    17ae:	2c f0       	brlt	.+10     	; 0x17ba <vfprintf+0x34c>
    17b0:	b7 01       	movw	r22, r14
    17b2:	90 e0       	ldi	r25, 0x00	; 0
    17b4:	0e 94 51 14 	call	0x28a2	; 0x28a2 <fputc>
    17b8:	d9 cf       	rjmp	.-78     	; 0x176c <vfprintf+0x2fe>
    17ba:	c8 14       	cp	r12, r8
    17bc:	d9 04       	cpc	r13, r9
    17be:	41 f4       	brne	.+16     	; 0x17d0 <vfprintf+0x362>
    17c0:	9a 81       	ldd	r25, Y+2	; 0x02
    17c2:	96 33       	cpi	r25, 0x36	; 54
    17c4:	20 f4       	brcc	.+8      	; 0x17ce <vfprintf+0x360>
    17c6:	95 33       	cpi	r25, 0x35	; 53
    17c8:	19 f4       	brne	.+6      	; 0x17d0 <vfprintf+0x362>
    17ca:	3c 85       	ldd	r19, Y+12	; 0x0c
    17cc:	34 ff       	sbrs	r19, 4
    17ce:	81 e3       	ldi	r24, 0x31	; 49
    17d0:	b7 01       	movw	r22, r14
    17d2:	90 e0       	ldi	r25, 0x00	; 0
    17d4:	4e c0       	rjmp	.+156    	; 0x1872 <vfprintf+0x404>
    17d6:	8a 81       	ldd	r24, Y+2	; 0x02
    17d8:	81 33       	cpi	r24, 0x31	; 49
    17da:	19 f0       	breq	.+6      	; 0x17e2 <vfprintf+0x374>
    17dc:	9c 85       	ldd	r25, Y+12	; 0x0c
    17de:	9f 7e       	andi	r25, 0xEF	; 239
    17e0:	9c 87       	std	Y+12, r25	; 0x0c
    17e2:	b7 01       	movw	r22, r14
    17e4:	90 e0       	ldi	r25, 0x00	; 0
    17e6:	0e 94 51 14 	call	0x28a2	; 0x28a2 <fputc>
    17ea:	11 11       	cpse	r17, r1
    17ec:	05 c0       	rjmp	.+10     	; 0x17f8 <vfprintf+0x38a>
    17ee:	94 fc       	sbrc	r9, 4
    17f0:	18 c0       	rjmp	.+48     	; 0x1822 <vfprintf+0x3b4>
    17f2:	85 e6       	ldi	r24, 0x65	; 101
    17f4:	90 e0       	ldi	r25, 0x00	; 0
    17f6:	17 c0       	rjmp	.+46     	; 0x1826 <vfprintf+0x3b8>
    17f8:	b7 01       	movw	r22, r14
    17fa:	8e e2       	ldi	r24, 0x2E	; 46
    17fc:	90 e0       	ldi	r25, 0x00	; 0
    17fe:	0e 94 51 14 	call	0x28a2	; 0x28a2 <fputc>
    1802:	1e 5f       	subi	r17, 0xFE	; 254
    1804:	82 e0       	ldi	r24, 0x02	; 2
    1806:	01 e0       	ldi	r16, 0x01	; 1
    1808:	08 0f       	add	r16, r24
    180a:	f3 01       	movw	r30, r6
    180c:	e8 0f       	add	r30, r24
    180e:	f1 1d       	adc	r31, r1
    1810:	80 81       	ld	r24, Z
    1812:	b7 01       	movw	r22, r14
    1814:	90 e0       	ldi	r25, 0x00	; 0
    1816:	0e 94 51 14 	call	0x28a2	; 0x28a2 <fputc>
    181a:	80 2f       	mov	r24, r16
    181c:	01 13       	cpse	r16, r17
    181e:	f3 cf       	rjmp	.-26     	; 0x1806 <vfprintf+0x398>
    1820:	e6 cf       	rjmp	.-52     	; 0x17ee <vfprintf+0x380>
    1822:	85 e4       	ldi	r24, 0x45	; 69
    1824:	90 e0       	ldi	r25, 0x00	; 0
    1826:	b7 01       	movw	r22, r14
    1828:	0e 94 51 14 	call	0x28a2	; 0x28a2 <fputc>
    182c:	d7 fc       	sbrc	r13, 7
    182e:	06 c0       	rjmp	.+12     	; 0x183c <vfprintf+0x3ce>
    1830:	c1 14       	cp	r12, r1
    1832:	d1 04       	cpc	r13, r1
    1834:	41 f4       	brne	.+16     	; 0x1846 <vfprintf+0x3d8>
    1836:	ec 85       	ldd	r30, Y+12	; 0x0c
    1838:	e4 ff       	sbrs	r30, 4
    183a:	05 c0       	rjmp	.+10     	; 0x1846 <vfprintf+0x3d8>
    183c:	d1 94       	neg	r13
    183e:	c1 94       	neg	r12
    1840:	d1 08       	sbc	r13, r1
    1842:	8d e2       	ldi	r24, 0x2D	; 45
    1844:	01 c0       	rjmp	.+2      	; 0x1848 <vfprintf+0x3da>
    1846:	8b e2       	ldi	r24, 0x2B	; 43
    1848:	b7 01       	movw	r22, r14
    184a:	90 e0       	ldi	r25, 0x00	; 0
    184c:	0e 94 51 14 	call	0x28a2	; 0x28a2 <fputc>
    1850:	80 e3       	ldi	r24, 0x30	; 48
    1852:	2a e0       	ldi	r18, 0x0A	; 10
    1854:	c2 16       	cp	r12, r18
    1856:	d1 04       	cpc	r13, r1
    1858:	2c f0       	brlt	.+10     	; 0x1864 <vfprintf+0x3f6>
    185a:	8f 5f       	subi	r24, 0xFF	; 255
    185c:	fa e0       	ldi	r31, 0x0A	; 10
    185e:	cf 1a       	sub	r12, r31
    1860:	d1 08       	sbc	r13, r1
    1862:	f7 cf       	rjmp	.-18     	; 0x1852 <vfprintf+0x3e4>
    1864:	b7 01       	movw	r22, r14
    1866:	90 e0       	ldi	r25, 0x00	; 0
    1868:	0e 94 51 14 	call	0x28a2	; 0x28a2 <fputc>
    186c:	b7 01       	movw	r22, r14
    186e:	c6 01       	movw	r24, r12
    1870:	c0 96       	adiw	r24, 0x30	; 48
    1872:	0e 94 51 14 	call	0x28a2	; 0x28a2 <fputc>
    1876:	4a c1       	rjmp	.+660    	; 0x1b0c <vfprintf+0x69e>
    1878:	83 36       	cpi	r24, 0x63	; 99
    187a:	31 f0       	breq	.+12     	; 0x1888 <vfprintf+0x41a>
    187c:	83 37       	cpi	r24, 0x73	; 115
    187e:	79 f0       	breq	.+30     	; 0x189e <vfprintf+0x430>
    1880:	83 35       	cpi	r24, 0x53	; 83
    1882:	09 f0       	breq	.+2      	; 0x1886 <vfprintf+0x418>
    1884:	52 c0       	rjmp	.+164    	; 0x192a <vfprintf+0x4bc>
    1886:	1f c0       	rjmp	.+62     	; 0x18c6 <vfprintf+0x458>
    1888:	56 01       	movw	r10, r12
    188a:	32 e0       	ldi	r19, 0x02	; 2
    188c:	a3 0e       	add	r10, r19
    188e:	b1 1c       	adc	r11, r1
    1890:	f6 01       	movw	r30, r12
    1892:	80 81       	ld	r24, Z
    1894:	89 83       	std	Y+1, r24	; 0x01
    1896:	01 e0       	ldi	r16, 0x01	; 1
    1898:	10 e0       	ldi	r17, 0x00	; 0
    189a:	63 01       	movw	r12, r6
    189c:	11 c0       	rjmp	.+34     	; 0x18c0 <vfprintf+0x452>
    189e:	56 01       	movw	r10, r12
    18a0:	f2 e0       	ldi	r31, 0x02	; 2
    18a2:	af 0e       	add	r10, r31
    18a4:	b1 1c       	adc	r11, r1
    18a6:	f6 01       	movw	r30, r12
    18a8:	c0 80       	ld	r12, Z
    18aa:	d1 80       	ldd	r13, Z+1	; 0x01
    18ac:	96 fe       	sbrs	r9, 6
    18ae:	03 c0       	rjmp	.+6      	; 0x18b6 <vfprintf+0x448>
    18b0:	61 2f       	mov	r22, r17
    18b2:	70 e0       	ldi	r23, 0x00	; 0
    18b4:	02 c0       	rjmp	.+4      	; 0x18ba <vfprintf+0x44c>
    18b6:	6f ef       	ldi	r22, 0xFF	; 255
    18b8:	7f ef       	ldi	r23, 0xFF	; 255
    18ba:	c6 01       	movw	r24, r12
    18bc:	a9 d7       	rcall	.+3922   	; 0x2810 <strnlen>
    18be:	8c 01       	movw	r16, r24
    18c0:	f9 2d       	mov	r31, r9
    18c2:	ff 77       	andi	r31, 0x7F	; 127
    18c4:	13 c0       	rjmp	.+38     	; 0x18ec <vfprintf+0x47e>
    18c6:	56 01       	movw	r10, r12
    18c8:	22 e0       	ldi	r18, 0x02	; 2
    18ca:	a2 0e       	add	r10, r18
    18cc:	b1 1c       	adc	r11, r1
    18ce:	f6 01       	movw	r30, r12
    18d0:	c0 80       	ld	r12, Z
    18d2:	d1 80       	ldd	r13, Z+1	; 0x01
    18d4:	96 fe       	sbrs	r9, 6
    18d6:	03 c0       	rjmp	.+6      	; 0x18de <vfprintf+0x470>
    18d8:	61 2f       	mov	r22, r17
    18da:	70 e0       	ldi	r23, 0x00	; 0
    18dc:	02 c0       	rjmp	.+4      	; 0x18e2 <vfprintf+0x474>
    18de:	6f ef       	ldi	r22, 0xFF	; 255
    18e0:	7f ef       	ldi	r23, 0xFF	; 255
    18e2:	c6 01       	movw	r24, r12
    18e4:	8a d7       	rcall	.+3860   	; 0x27fa <strnlen_P>
    18e6:	8c 01       	movw	r16, r24
    18e8:	f9 2d       	mov	r31, r9
    18ea:	f0 68       	ori	r31, 0x80	; 128
    18ec:	9f 2e       	mov	r9, r31
    18ee:	f3 fd       	sbrc	r31, 3
    18f0:	18 c0       	rjmp	.+48     	; 0x1922 <vfprintf+0x4b4>
    18f2:	85 2d       	mov	r24, r5
    18f4:	90 e0       	ldi	r25, 0x00	; 0
    18f6:	08 17       	cp	r16, r24
    18f8:	19 07       	cpc	r17, r25
    18fa:	98 f4       	brcc	.+38     	; 0x1922 <vfprintf+0x4b4>
    18fc:	b7 01       	movw	r22, r14
    18fe:	80 e2       	ldi	r24, 0x20	; 32
    1900:	90 e0       	ldi	r25, 0x00	; 0
    1902:	cf d7       	rcall	.+3998   	; 0x28a2 <fputc>
    1904:	5a 94       	dec	r5
    1906:	f5 cf       	rjmp	.-22     	; 0x18f2 <vfprintf+0x484>
    1908:	f6 01       	movw	r30, r12
    190a:	97 fc       	sbrc	r9, 7
    190c:	85 91       	lpm	r24, Z+
    190e:	97 fe       	sbrs	r9, 7
    1910:	81 91       	ld	r24, Z+
    1912:	6f 01       	movw	r12, r30
    1914:	b7 01       	movw	r22, r14
    1916:	90 e0       	ldi	r25, 0x00	; 0
    1918:	c4 d7       	rcall	.+3976   	; 0x28a2 <fputc>
    191a:	51 10       	cpse	r5, r1
    191c:	5a 94       	dec	r5
    191e:	01 50       	subi	r16, 0x01	; 1
    1920:	11 09       	sbc	r17, r1
    1922:	01 15       	cp	r16, r1
    1924:	11 05       	cpc	r17, r1
    1926:	81 f7       	brne	.-32     	; 0x1908 <vfprintf+0x49a>
    1928:	f1 c0       	rjmp	.+482    	; 0x1b0c <vfprintf+0x69e>
    192a:	84 36       	cpi	r24, 0x64	; 100
    192c:	11 f0       	breq	.+4      	; 0x1932 <vfprintf+0x4c4>
    192e:	89 36       	cpi	r24, 0x69	; 105
    1930:	61 f5       	brne	.+88     	; 0x198a <vfprintf+0x51c>
    1932:	56 01       	movw	r10, r12
    1934:	97 fe       	sbrs	r9, 7
    1936:	09 c0       	rjmp	.+18     	; 0x194a <vfprintf+0x4dc>
    1938:	24 e0       	ldi	r18, 0x04	; 4
    193a:	a2 0e       	add	r10, r18
    193c:	b1 1c       	adc	r11, r1
    193e:	f6 01       	movw	r30, r12
    1940:	60 81       	ld	r22, Z
    1942:	71 81       	ldd	r23, Z+1	; 0x01
    1944:	82 81       	ldd	r24, Z+2	; 0x02
    1946:	93 81       	ldd	r25, Z+3	; 0x03
    1948:	0a c0       	rjmp	.+20     	; 0x195e <vfprintf+0x4f0>
    194a:	f2 e0       	ldi	r31, 0x02	; 2
    194c:	af 0e       	add	r10, r31
    194e:	b1 1c       	adc	r11, r1
    1950:	f6 01       	movw	r30, r12
    1952:	60 81       	ld	r22, Z
    1954:	71 81       	ldd	r23, Z+1	; 0x01
    1956:	07 2e       	mov	r0, r23
    1958:	00 0c       	add	r0, r0
    195a:	88 0b       	sbc	r24, r24
    195c:	99 0b       	sbc	r25, r25
    195e:	f9 2d       	mov	r31, r9
    1960:	ff 76       	andi	r31, 0x6F	; 111
    1962:	9f 2e       	mov	r9, r31
    1964:	97 ff       	sbrs	r25, 7
    1966:	09 c0       	rjmp	.+18     	; 0x197a <vfprintf+0x50c>
    1968:	90 95       	com	r25
    196a:	80 95       	com	r24
    196c:	70 95       	com	r23
    196e:	61 95       	neg	r22
    1970:	7f 4f       	sbci	r23, 0xFF	; 255
    1972:	8f 4f       	sbci	r24, 0xFF	; 255
    1974:	9f 4f       	sbci	r25, 0xFF	; 255
    1976:	f0 68       	ori	r31, 0x80	; 128
    1978:	9f 2e       	mov	r9, r31
    197a:	2a e0       	ldi	r18, 0x0A	; 10
    197c:	30 e0       	ldi	r19, 0x00	; 0
    197e:	a3 01       	movw	r20, r6
    1980:	0e 94 cd 14 	call	0x299a	; 0x299a <__ultoa_invert>
    1984:	c8 2e       	mov	r12, r24
    1986:	c6 18       	sub	r12, r6
    1988:	3e c0       	rjmp	.+124    	; 0x1a06 <vfprintf+0x598>
    198a:	09 2d       	mov	r16, r9
    198c:	85 37       	cpi	r24, 0x75	; 117
    198e:	21 f4       	brne	.+8      	; 0x1998 <vfprintf+0x52a>
    1990:	0f 7e       	andi	r16, 0xEF	; 239
    1992:	2a e0       	ldi	r18, 0x0A	; 10
    1994:	30 e0       	ldi	r19, 0x00	; 0
    1996:	1d c0       	rjmp	.+58     	; 0x19d2 <vfprintf+0x564>
    1998:	09 7f       	andi	r16, 0xF9	; 249
    199a:	8f 36       	cpi	r24, 0x6F	; 111
    199c:	91 f0       	breq	.+36     	; 0x19c2 <vfprintf+0x554>
    199e:	18 f4       	brcc	.+6      	; 0x19a6 <vfprintf+0x538>
    19a0:	88 35       	cpi	r24, 0x58	; 88
    19a2:	59 f0       	breq	.+22     	; 0x19ba <vfprintf+0x54c>
    19a4:	bc c0       	rjmp	.+376    	; 0x1b1e <vfprintf+0x6b0>
    19a6:	80 37       	cpi	r24, 0x70	; 112
    19a8:	19 f0       	breq	.+6      	; 0x19b0 <vfprintf+0x542>
    19aa:	88 37       	cpi	r24, 0x78	; 120
    19ac:	11 f0       	breq	.+4      	; 0x19b2 <vfprintf+0x544>
    19ae:	b7 c0       	rjmp	.+366    	; 0x1b1e <vfprintf+0x6b0>
    19b0:	00 61       	ori	r16, 0x10	; 16
    19b2:	04 ff       	sbrs	r16, 4
    19b4:	09 c0       	rjmp	.+18     	; 0x19c8 <vfprintf+0x55a>
    19b6:	04 60       	ori	r16, 0x04	; 4
    19b8:	07 c0       	rjmp	.+14     	; 0x19c8 <vfprintf+0x55a>
    19ba:	94 fe       	sbrs	r9, 4
    19bc:	08 c0       	rjmp	.+16     	; 0x19ce <vfprintf+0x560>
    19be:	06 60       	ori	r16, 0x06	; 6
    19c0:	06 c0       	rjmp	.+12     	; 0x19ce <vfprintf+0x560>
    19c2:	28 e0       	ldi	r18, 0x08	; 8
    19c4:	30 e0       	ldi	r19, 0x00	; 0
    19c6:	05 c0       	rjmp	.+10     	; 0x19d2 <vfprintf+0x564>
    19c8:	20 e1       	ldi	r18, 0x10	; 16
    19ca:	30 e0       	ldi	r19, 0x00	; 0
    19cc:	02 c0       	rjmp	.+4      	; 0x19d2 <vfprintf+0x564>
    19ce:	20 e1       	ldi	r18, 0x10	; 16
    19d0:	32 e0       	ldi	r19, 0x02	; 2
    19d2:	56 01       	movw	r10, r12
    19d4:	07 ff       	sbrs	r16, 7
    19d6:	09 c0       	rjmp	.+18     	; 0x19ea <vfprintf+0x57c>
    19d8:	84 e0       	ldi	r24, 0x04	; 4
    19da:	a8 0e       	add	r10, r24
    19dc:	b1 1c       	adc	r11, r1
    19de:	f6 01       	movw	r30, r12
    19e0:	60 81       	ld	r22, Z
    19e2:	71 81       	ldd	r23, Z+1	; 0x01
    19e4:	82 81       	ldd	r24, Z+2	; 0x02
    19e6:	93 81       	ldd	r25, Z+3	; 0x03
    19e8:	08 c0       	rjmp	.+16     	; 0x19fa <vfprintf+0x58c>
    19ea:	f2 e0       	ldi	r31, 0x02	; 2
    19ec:	af 0e       	add	r10, r31
    19ee:	b1 1c       	adc	r11, r1
    19f0:	f6 01       	movw	r30, r12
    19f2:	60 81       	ld	r22, Z
    19f4:	71 81       	ldd	r23, Z+1	; 0x01
    19f6:	80 e0       	ldi	r24, 0x00	; 0
    19f8:	90 e0       	ldi	r25, 0x00	; 0
    19fa:	a3 01       	movw	r20, r6
    19fc:	ce d7       	rcall	.+3996   	; 0x299a <__ultoa_invert>
    19fe:	c8 2e       	mov	r12, r24
    1a00:	c6 18       	sub	r12, r6
    1a02:	0f 77       	andi	r16, 0x7F	; 127
    1a04:	90 2e       	mov	r9, r16
    1a06:	96 fe       	sbrs	r9, 6
    1a08:	0b c0       	rjmp	.+22     	; 0x1a20 <vfprintf+0x5b2>
    1a0a:	09 2d       	mov	r16, r9
    1a0c:	0e 7f       	andi	r16, 0xFE	; 254
    1a0e:	c1 16       	cp	r12, r17
    1a10:	50 f4       	brcc	.+20     	; 0x1a26 <vfprintf+0x5b8>
    1a12:	94 fe       	sbrs	r9, 4
    1a14:	0a c0       	rjmp	.+20     	; 0x1a2a <vfprintf+0x5bc>
    1a16:	92 fc       	sbrc	r9, 2
    1a18:	08 c0       	rjmp	.+16     	; 0x1a2a <vfprintf+0x5bc>
    1a1a:	09 2d       	mov	r16, r9
    1a1c:	0e 7e       	andi	r16, 0xEE	; 238
    1a1e:	05 c0       	rjmp	.+10     	; 0x1a2a <vfprintf+0x5bc>
    1a20:	dc 2c       	mov	r13, r12
    1a22:	09 2d       	mov	r16, r9
    1a24:	03 c0       	rjmp	.+6      	; 0x1a2c <vfprintf+0x5be>
    1a26:	dc 2c       	mov	r13, r12
    1a28:	01 c0       	rjmp	.+2      	; 0x1a2c <vfprintf+0x5be>
    1a2a:	d1 2e       	mov	r13, r17
    1a2c:	04 ff       	sbrs	r16, 4
    1a2e:	0d c0       	rjmp	.+26     	; 0x1a4a <vfprintf+0x5dc>
    1a30:	fe 01       	movw	r30, r28
    1a32:	ec 0d       	add	r30, r12
    1a34:	f1 1d       	adc	r31, r1
    1a36:	80 81       	ld	r24, Z
    1a38:	80 33       	cpi	r24, 0x30	; 48
    1a3a:	11 f4       	brne	.+4      	; 0x1a40 <vfprintf+0x5d2>
    1a3c:	09 7e       	andi	r16, 0xE9	; 233
    1a3e:	09 c0       	rjmp	.+18     	; 0x1a52 <vfprintf+0x5e4>
    1a40:	02 ff       	sbrs	r16, 2
    1a42:	06 c0       	rjmp	.+12     	; 0x1a50 <vfprintf+0x5e2>
    1a44:	d3 94       	inc	r13
    1a46:	d3 94       	inc	r13
    1a48:	04 c0       	rjmp	.+8      	; 0x1a52 <vfprintf+0x5e4>
    1a4a:	80 2f       	mov	r24, r16
    1a4c:	86 78       	andi	r24, 0x86	; 134
    1a4e:	09 f0       	breq	.+2      	; 0x1a52 <vfprintf+0x5e4>
    1a50:	d3 94       	inc	r13
    1a52:	03 fd       	sbrc	r16, 3
    1a54:	10 c0       	rjmp	.+32     	; 0x1a76 <vfprintf+0x608>
    1a56:	00 ff       	sbrs	r16, 0
    1a58:	06 c0       	rjmp	.+12     	; 0x1a66 <vfprintf+0x5f8>
    1a5a:	1c 2d       	mov	r17, r12
    1a5c:	d5 14       	cp	r13, r5
    1a5e:	78 f4       	brcc	.+30     	; 0x1a7e <vfprintf+0x610>
    1a60:	15 0d       	add	r17, r5
    1a62:	1d 19       	sub	r17, r13
    1a64:	0c c0       	rjmp	.+24     	; 0x1a7e <vfprintf+0x610>
    1a66:	d5 14       	cp	r13, r5
    1a68:	50 f4       	brcc	.+20     	; 0x1a7e <vfprintf+0x610>
    1a6a:	b7 01       	movw	r22, r14
    1a6c:	80 e2       	ldi	r24, 0x20	; 32
    1a6e:	90 e0       	ldi	r25, 0x00	; 0
    1a70:	18 d7       	rcall	.+3632   	; 0x28a2 <fputc>
    1a72:	d3 94       	inc	r13
    1a74:	f8 cf       	rjmp	.-16     	; 0x1a66 <vfprintf+0x5f8>
    1a76:	d5 14       	cp	r13, r5
    1a78:	10 f4       	brcc	.+4      	; 0x1a7e <vfprintf+0x610>
    1a7a:	5d 18       	sub	r5, r13
    1a7c:	01 c0       	rjmp	.+2      	; 0x1a80 <vfprintf+0x612>
    1a7e:	51 2c       	mov	r5, r1
    1a80:	04 ff       	sbrs	r16, 4
    1a82:	0f c0       	rjmp	.+30     	; 0x1aa2 <vfprintf+0x634>
    1a84:	b7 01       	movw	r22, r14
    1a86:	80 e3       	ldi	r24, 0x30	; 48
    1a88:	90 e0       	ldi	r25, 0x00	; 0
    1a8a:	0b d7       	rcall	.+3606   	; 0x28a2 <fputc>
    1a8c:	02 ff       	sbrs	r16, 2
    1a8e:	16 c0       	rjmp	.+44     	; 0x1abc <vfprintf+0x64e>
    1a90:	01 fd       	sbrc	r16, 1
    1a92:	03 c0       	rjmp	.+6      	; 0x1a9a <vfprintf+0x62c>
    1a94:	88 e7       	ldi	r24, 0x78	; 120
    1a96:	90 e0       	ldi	r25, 0x00	; 0
    1a98:	02 c0       	rjmp	.+4      	; 0x1a9e <vfprintf+0x630>
    1a9a:	88 e5       	ldi	r24, 0x58	; 88
    1a9c:	90 e0       	ldi	r25, 0x00	; 0
    1a9e:	b7 01       	movw	r22, r14
    1aa0:	0c c0       	rjmp	.+24     	; 0x1aba <vfprintf+0x64c>
    1aa2:	80 2f       	mov	r24, r16
    1aa4:	86 78       	andi	r24, 0x86	; 134
    1aa6:	51 f0       	breq	.+20     	; 0x1abc <vfprintf+0x64e>
    1aa8:	01 ff       	sbrs	r16, 1
    1aaa:	02 c0       	rjmp	.+4      	; 0x1ab0 <vfprintf+0x642>
    1aac:	8b e2       	ldi	r24, 0x2B	; 43
    1aae:	01 c0       	rjmp	.+2      	; 0x1ab2 <vfprintf+0x644>
    1ab0:	80 e2       	ldi	r24, 0x20	; 32
    1ab2:	07 fd       	sbrc	r16, 7
    1ab4:	8d e2       	ldi	r24, 0x2D	; 45
    1ab6:	b7 01       	movw	r22, r14
    1ab8:	90 e0       	ldi	r25, 0x00	; 0
    1aba:	f3 d6       	rcall	.+3558   	; 0x28a2 <fputc>
    1abc:	c1 16       	cp	r12, r17
    1abe:	30 f4       	brcc	.+12     	; 0x1acc <vfprintf+0x65e>
    1ac0:	b7 01       	movw	r22, r14
    1ac2:	80 e3       	ldi	r24, 0x30	; 48
    1ac4:	90 e0       	ldi	r25, 0x00	; 0
    1ac6:	ed d6       	rcall	.+3546   	; 0x28a2 <fputc>
    1ac8:	11 50       	subi	r17, 0x01	; 1
    1aca:	f8 cf       	rjmp	.-16     	; 0x1abc <vfprintf+0x64e>
    1acc:	ca 94       	dec	r12
    1ace:	f3 01       	movw	r30, r6
    1ad0:	ec 0d       	add	r30, r12
    1ad2:	f1 1d       	adc	r31, r1
    1ad4:	80 81       	ld	r24, Z
    1ad6:	b7 01       	movw	r22, r14
    1ad8:	90 e0       	ldi	r25, 0x00	; 0
    1ada:	e3 d6       	rcall	.+3526   	; 0x28a2 <fputc>
    1adc:	c1 10       	cpse	r12, r1
    1ade:	f6 cf       	rjmp	.-20     	; 0x1acc <vfprintf+0x65e>
    1ae0:	15 c0       	rjmp	.+42     	; 0x1b0c <vfprintf+0x69e>
    1ae2:	f4 e0       	ldi	r31, 0x04	; 4
    1ae4:	f5 15       	cp	r31, r5
    1ae6:	50 f5       	brcc	.+84     	; 0x1b3c <vfprintf+0x6ce>
    1ae8:	84 e0       	ldi	r24, 0x04	; 4
    1aea:	58 1a       	sub	r5, r24
    1aec:	93 fe       	sbrs	r9, 3
    1aee:	1e c0       	rjmp	.+60     	; 0x1b2c <vfprintf+0x6be>
    1af0:	01 11       	cpse	r16, r1
    1af2:	25 c0       	rjmp	.+74     	; 0x1b3e <vfprintf+0x6d0>
    1af4:	2c 85       	ldd	r18, Y+12	; 0x0c
    1af6:	23 ff       	sbrs	r18, 3
    1af8:	27 c0       	rjmp	.+78     	; 0x1b48 <vfprintf+0x6da>
    1afa:	0c e8       	ldi	r16, 0x8C	; 140
    1afc:	10 e0       	ldi	r17, 0x00	; 0
    1afe:	39 2d       	mov	r19, r9
    1b00:	30 71       	andi	r19, 0x10	; 16
    1b02:	93 2e       	mov	r9, r19
    1b04:	f8 01       	movw	r30, r16
    1b06:	84 91       	lpm	r24, Z
    1b08:	81 11       	cpse	r24, r1
    1b0a:	21 c0       	rjmp	.+66     	; 0x1b4e <vfprintf+0x6e0>
    1b0c:	55 20       	and	r5, r5
    1b0e:	09 f4       	brne	.+2      	; 0x1b12 <vfprintf+0x6a4>
    1b10:	ee cc       	rjmp	.-1572   	; 0x14ee <vfprintf+0x80>
    1b12:	b7 01       	movw	r22, r14
    1b14:	80 e2       	ldi	r24, 0x20	; 32
    1b16:	90 e0       	ldi	r25, 0x00	; 0
    1b18:	c4 d6       	rcall	.+3464   	; 0x28a2 <fputc>
    1b1a:	5a 94       	dec	r5
    1b1c:	f7 cf       	rjmp	.-18     	; 0x1b0c <vfprintf+0x69e>
    1b1e:	f7 01       	movw	r30, r14
    1b20:	86 81       	ldd	r24, Z+6	; 0x06
    1b22:	97 81       	ldd	r25, Z+7	; 0x07
    1b24:	23 c0       	rjmp	.+70     	; 0x1b6c <vfprintf+0x6fe>
    1b26:	8f ef       	ldi	r24, 0xFF	; 255
    1b28:	9f ef       	ldi	r25, 0xFF	; 255
    1b2a:	20 c0       	rjmp	.+64     	; 0x1b6c <vfprintf+0x6fe>
    1b2c:	b7 01       	movw	r22, r14
    1b2e:	80 e2       	ldi	r24, 0x20	; 32
    1b30:	90 e0       	ldi	r25, 0x00	; 0
    1b32:	b7 d6       	rcall	.+3438   	; 0x28a2 <fputc>
    1b34:	5a 94       	dec	r5
    1b36:	51 10       	cpse	r5, r1
    1b38:	f9 cf       	rjmp	.-14     	; 0x1b2c <vfprintf+0x6be>
    1b3a:	da cf       	rjmp	.-76     	; 0x1af0 <vfprintf+0x682>
    1b3c:	51 2c       	mov	r5, r1
    1b3e:	b7 01       	movw	r22, r14
    1b40:	80 2f       	mov	r24, r16
    1b42:	90 e0       	ldi	r25, 0x00	; 0
    1b44:	ae d6       	rcall	.+3420   	; 0x28a2 <fputc>
    1b46:	d6 cf       	rjmp	.-84     	; 0x1af4 <vfprintf+0x686>
    1b48:	00 e9       	ldi	r16, 0x90	; 144
    1b4a:	10 e0       	ldi	r17, 0x00	; 0
    1b4c:	d8 cf       	rjmp	.-80     	; 0x1afe <vfprintf+0x690>
    1b4e:	91 10       	cpse	r9, r1
    1b50:	80 52       	subi	r24, 0x20	; 32
    1b52:	b7 01       	movw	r22, r14
    1b54:	90 e0       	ldi	r25, 0x00	; 0
    1b56:	a5 d6       	rcall	.+3402   	; 0x28a2 <fputc>
    1b58:	0f 5f       	subi	r16, 0xFF	; 255
    1b5a:	1f 4f       	sbci	r17, 0xFF	; 255
    1b5c:	d3 cf       	rjmp	.-90     	; 0x1b04 <vfprintf+0x696>
    1b5e:	23 e0       	ldi	r18, 0x03	; 3
    1b60:	25 15       	cp	r18, r5
    1b62:	10 f4       	brcc	.+4      	; 0x1b68 <vfprintf+0x6fa>
    1b64:	83 e0       	ldi	r24, 0x03	; 3
    1b66:	c1 cf       	rjmp	.-126    	; 0x1aea <vfprintf+0x67c>
    1b68:	51 2c       	mov	r5, r1
    1b6a:	c4 cf       	rjmp	.-120    	; 0x1af4 <vfprintf+0x686>
    1b6c:	60 96       	adiw	r28, 0x10	; 16
    1b6e:	0f b6       	in	r0, 0x3f	; 63
    1b70:	f8 94       	cli
    1b72:	de bf       	out	0x3e, r29	; 62
    1b74:	0f be       	out	0x3f, r0	; 63
    1b76:	cd bf       	out	0x3d, r28	; 61
    1b78:	df 91       	pop	r29
    1b7a:	cf 91       	pop	r28
    1b7c:	1f 91       	pop	r17
    1b7e:	0f 91       	pop	r16
    1b80:	ff 90       	pop	r15
    1b82:	ef 90       	pop	r14
    1b84:	df 90       	pop	r13
    1b86:	cf 90       	pop	r12
    1b88:	bf 90       	pop	r11
    1b8a:	af 90       	pop	r10
    1b8c:	9f 90       	pop	r9
    1b8e:	8f 90       	pop	r8
    1b90:	7f 90       	pop	r7
    1b92:	6f 90       	pop	r6
    1b94:	5f 90       	pop	r5
    1b96:	4f 90       	pop	r4
    1b98:	3f 90       	pop	r3
    1b9a:	2f 90       	pop	r2
    1b9c:	08 95       	ret

00001b9e <putval>:
    1b9e:	20 fd       	sbrc	r18, 0
    1ba0:	09 c0       	rjmp	.+18     	; 0x1bb4 <putval+0x16>
    1ba2:	fc 01       	movw	r30, r24
    1ba4:	23 fd       	sbrc	r18, 3
    1ba6:	05 c0       	rjmp	.+10     	; 0x1bb2 <putval+0x14>
    1ba8:	22 ff       	sbrs	r18, 2
    1baa:	02 c0       	rjmp	.+4      	; 0x1bb0 <putval+0x12>
    1bac:	73 83       	std	Z+3, r23	; 0x03
    1bae:	62 83       	std	Z+2, r22	; 0x02
    1bb0:	51 83       	std	Z+1, r21	; 0x01
    1bb2:	40 83       	st	Z, r20
    1bb4:	08 95       	ret

00001bb6 <mulacc>:
    1bb6:	44 fd       	sbrc	r20, 4
    1bb8:	17 c0       	rjmp	.+46     	; 0x1be8 <mulacc+0x32>
    1bba:	46 fd       	sbrc	r20, 6
    1bbc:	17 c0       	rjmp	.+46     	; 0x1bec <mulacc+0x36>
    1bbe:	ab 01       	movw	r20, r22
    1bc0:	bc 01       	movw	r22, r24
    1bc2:	da 01       	movw	r26, r20
    1bc4:	fb 01       	movw	r30, r22
    1bc6:	aa 0f       	add	r26, r26
    1bc8:	bb 1f       	adc	r27, r27
    1bca:	ee 1f       	adc	r30, r30
    1bcc:	ff 1f       	adc	r31, r31
    1bce:	10 94       	com	r1
    1bd0:	d1 f7       	brne	.-12     	; 0x1bc6 <mulacc+0x10>
    1bd2:	4a 0f       	add	r20, r26
    1bd4:	5b 1f       	adc	r21, r27
    1bd6:	6e 1f       	adc	r22, r30
    1bd8:	7f 1f       	adc	r23, r31
    1bda:	cb 01       	movw	r24, r22
    1bdc:	ba 01       	movw	r22, r20
    1bde:	66 0f       	add	r22, r22
    1be0:	77 1f       	adc	r23, r23
    1be2:	88 1f       	adc	r24, r24
    1be4:	99 1f       	adc	r25, r25
    1be6:	09 c0       	rjmp	.+18     	; 0x1bfa <mulacc+0x44>
    1be8:	33 e0       	ldi	r19, 0x03	; 3
    1bea:	01 c0       	rjmp	.+2      	; 0x1bee <mulacc+0x38>
    1bec:	34 e0       	ldi	r19, 0x04	; 4
    1bee:	66 0f       	add	r22, r22
    1bf0:	77 1f       	adc	r23, r23
    1bf2:	88 1f       	adc	r24, r24
    1bf4:	99 1f       	adc	r25, r25
    1bf6:	31 50       	subi	r19, 0x01	; 1
    1bf8:	d1 f7       	brne	.-12     	; 0x1bee <mulacc+0x38>
    1bfa:	62 0f       	add	r22, r18
    1bfc:	71 1d       	adc	r23, r1
    1bfe:	81 1d       	adc	r24, r1
    1c00:	91 1d       	adc	r25, r1
    1c02:	08 95       	ret

00001c04 <skip_spaces>:
    1c04:	0f 93       	push	r16
    1c06:	1f 93       	push	r17
    1c08:	cf 93       	push	r28
    1c0a:	df 93       	push	r29
    1c0c:	8c 01       	movw	r16, r24
    1c0e:	c8 01       	movw	r24, r16
    1c10:	0a d6       	rcall	.+3092   	; 0x2826 <fgetc>
    1c12:	ec 01       	movw	r28, r24
    1c14:	97 fd       	sbrc	r25, 7
    1c16:	06 c0       	rjmp	.+12     	; 0x1c24 <skip_spaces+0x20>
    1c18:	d5 d5       	rcall	.+2986   	; 0x27c4 <isspace>
    1c1a:	89 2b       	or	r24, r25
    1c1c:	c1 f7       	brne	.-16     	; 0x1c0e <skip_spaces+0xa>
    1c1e:	b8 01       	movw	r22, r16
    1c20:	ce 01       	movw	r24, r28
    1c22:	a2 d6       	rcall	.+3396   	; 0x2968 <ungetc>
    1c24:	ce 01       	movw	r24, r28
    1c26:	df 91       	pop	r29
    1c28:	cf 91       	pop	r28
    1c2a:	1f 91       	pop	r17
    1c2c:	0f 91       	pop	r16
    1c2e:	08 95       	ret

00001c30 <conv_int>:
    1c30:	8f 92       	push	r8
    1c32:	9f 92       	push	r9
    1c34:	af 92       	push	r10
    1c36:	bf 92       	push	r11
    1c38:	cf 92       	push	r12
    1c3a:	df 92       	push	r13
    1c3c:	ef 92       	push	r14
    1c3e:	ff 92       	push	r15
    1c40:	0f 93       	push	r16
    1c42:	1f 93       	push	r17
    1c44:	cf 93       	push	r28
    1c46:	df 93       	push	r29
    1c48:	7c 01       	movw	r14, r24
    1c4a:	8b 01       	movw	r16, r22
    1c4c:	6a 01       	movw	r12, r20
    1c4e:	d2 2f       	mov	r29, r18
    1c50:	ea d5       	rcall	.+3028   	; 0x2826 <fgetc>
    1c52:	9c 01       	movw	r18, r24
    1c54:	33 27       	eor	r19, r19
    1c56:	2b 32       	cpi	r18, 0x2B	; 43
    1c58:	31 05       	cpc	r19, r1
    1c5a:	21 f0       	breq	.+8      	; 0x1c64 <conv_int+0x34>
    1c5c:	2d 32       	cpi	r18, 0x2D	; 45
    1c5e:	31 05       	cpc	r19, r1
    1c60:	51 f4       	brne	.+20     	; 0x1c76 <conv_int+0x46>
    1c62:	d0 68       	ori	r29, 0x80	; 128
    1c64:	01 50       	subi	r16, 0x01	; 1
    1c66:	11 09       	sbc	r17, r1
    1c68:	11 f4       	brne	.+4      	; 0x1c6e <conv_int+0x3e>
    1c6a:	80 e0       	ldi	r24, 0x00	; 0
    1c6c:	64 c0       	rjmp	.+200    	; 0x1d36 <conv_int+0x106>
    1c6e:	c7 01       	movw	r24, r14
    1c70:	da d5       	rcall	.+2996   	; 0x2826 <fgetc>
    1c72:	97 fd       	sbrc	r25, 7
    1c74:	fa cf       	rjmp	.-12     	; 0x1c6a <conv_int+0x3a>
    1c76:	cd 2f       	mov	r28, r29
    1c78:	cd 7f       	andi	r28, 0xFD	; 253
    1c7a:	2d 2f       	mov	r18, r29
    1c7c:	20 73       	andi	r18, 0x30	; 48
    1c7e:	09 f5       	brne	.+66     	; 0x1cc2 <conv_int+0x92>
    1c80:	80 33       	cpi	r24, 0x30	; 48
    1c82:	f9 f4       	brne	.+62     	; 0x1cc2 <conv_int+0x92>
    1c84:	58 01       	movw	r10, r16
    1c86:	81 e0       	ldi	r24, 0x01	; 1
    1c88:	a8 1a       	sub	r10, r24
    1c8a:	b1 08       	sbc	r11, r1
    1c8c:	09 f4       	brne	.+2      	; 0x1c90 <conv_int+0x60>
    1c8e:	40 c0       	rjmp	.+128    	; 0x1d10 <conv_int+0xe0>
    1c90:	c7 01       	movw	r24, r14
    1c92:	c9 d5       	rcall	.+2962   	; 0x2826 <fgetc>
    1c94:	97 fd       	sbrc	r25, 7
    1c96:	3c c0       	rjmp	.+120    	; 0x1d10 <conv_int+0xe0>
    1c98:	9c 01       	movw	r18, r24
    1c9a:	2f 7d       	andi	r18, 0xDF	; 223
    1c9c:	33 27       	eor	r19, r19
    1c9e:	28 35       	cpi	r18, 0x58	; 88
    1ca0:	31 05       	cpc	r19, r1
    1ca2:	49 f4       	brne	.+18     	; 0x1cb6 <conv_int+0x86>
    1ca4:	c2 64       	ori	r28, 0x42	; 66
    1ca6:	02 50       	subi	r16, 0x02	; 2
    1ca8:	11 09       	sbc	r17, r1
    1caa:	91 f1       	breq	.+100    	; 0x1d10 <conv_int+0xe0>
    1cac:	c7 01       	movw	r24, r14
    1cae:	bb d5       	rcall	.+2934   	; 0x2826 <fgetc>
    1cb0:	97 ff       	sbrs	r25, 7
    1cb2:	07 c0       	rjmp	.+14     	; 0x1cc2 <conv_int+0x92>
    1cb4:	2d c0       	rjmp	.+90     	; 0x1d10 <conv_int+0xe0>
    1cb6:	d6 ff       	sbrs	r29, 6
    1cb8:	02 c0       	rjmp	.+4      	; 0x1cbe <conv_int+0x8e>
    1cba:	c2 60       	ori	r28, 0x02	; 2
    1cbc:	01 c0       	rjmp	.+2      	; 0x1cc0 <conv_int+0x90>
    1cbe:	c2 61       	ori	r28, 0x12	; 18
    1cc0:	85 01       	movw	r16, r10
    1cc2:	81 2c       	mov	r8, r1
    1cc4:	91 2c       	mov	r9, r1
    1cc6:	54 01       	movw	r10, r8
    1cc8:	20 ed       	ldi	r18, 0xD0	; 208
    1cca:	28 0f       	add	r18, r24
    1ccc:	28 30       	cpi	r18, 0x08	; 8
    1cce:	78 f0       	brcs	.+30     	; 0x1cee <conv_int+0xbe>
    1cd0:	c4 ff       	sbrs	r28, 4
    1cd2:	03 c0       	rjmp	.+6      	; 0x1cda <conv_int+0xaa>
    1cd4:	b7 01       	movw	r22, r14
    1cd6:	48 d6       	rcall	.+3216   	; 0x2968 <ungetc>
    1cd8:	18 c0       	rjmp	.+48     	; 0x1d0a <conv_int+0xda>
    1cda:	2a 30       	cpi	r18, 0x0A	; 10
    1cdc:	40 f0       	brcs	.+16     	; 0x1cee <conv_int+0xbe>
    1cde:	c6 ff       	sbrs	r28, 6
    1ce0:	f9 cf       	rjmp	.-14     	; 0x1cd4 <conv_int+0xa4>
    1ce2:	2f 7d       	andi	r18, 0xDF	; 223
    1ce4:	3f ee       	ldi	r19, 0xEF	; 239
    1ce6:	32 0f       	add	r19, r18
    1ce8:	36 30       	cpi	r19, 0x06	; 6
    1cea:	a0 f7       	brcc	.-24     	; 0x1cd4 <conv_int+0xa4>
    1cec:	27 50       	subi	r18, 0x07	; 7
    1cee:	4c 2f       	mov	r20, r28
    1cf0:	c5 01       	movw	r24, r10
    1cf2:	b4 01       	movw	r22, r8
    1cf4:	60 df       	rcall	.-320    	; 0x1bb6 <mulacc>
    1cf6:	4b 01       	movw	r8, r22
    1cf8:	5c 01       	movw	r10, r24
    1cfa:	c2 60       	ori	r28, 0x02	; 2
    1cfc:	01 50       	subi	r16, 0x01	; 1
    1cfe:	11 09       	sbc	r17, r1
    1d00:	51 f0       	breq	.+20     	; 0x1d16 <conv_int+0xe6>
    1d02:	c7 01       	movw	r24, r14
    1d04:	90 d5       	rcall	.+2848   	; 0x2826 <fgetc>
    1d06:	97 ff       	sbrs	r25, 7
    1d08:	df cf       	rjmp	.-66     	; 0x1cc8 <conv_int+0x98>
    1d0a:	c1 fd       	sbrc	r28, 1
    1d0c:	04 c0       	rjmp	.+8      	; 0x1d16 <conv_int+0xe6>
    1d0e:	ad cf       	rjmp	.-166    	; 0x1c6a <conv_int+0x3a>
    1d10:	81 2c       	mov	r8, r1
    1d12:	91 2c       	mov	r9, r1
    1d14:	54 01       	movw	r10, r8
    1d16:	c7 ff       	sbrs	r28, 7
    1d18:	08 c0       	rjmp	.+16     	; 0x1d2a <conv_int+0xfa>
    1d1a:	b0 94       	com	r11
    1d1c:	a0 94       	com	r10
    1d1e:	90 94       	com	r9
    1d20:	80 94       	com	r8
    1d22:	81 1c       	adc	r8, r1
    1d24:	91 1c       	adc	r9, r1
    1d26:	a1 1c       	adc	r10, r1
    1d28:	b1 1c       	adc	r11, r1
    1d2a:	2c 2f       	mov	r18, r28
    1d2c:	b5 01       	movw	r22, r10
    1d2e:	a4 01       	movw	r20, r8
    1d30:	c6 01       	movw	r24, r12
    1d32:	35 df       	rcall	.-406    	; 0x1b9e <putval>
    1d34:	81 e0       	ldi	r24, 0x01	; 1
    1d36:	df 91       	pop	r29
    1d38:	cf 91       	pop	r28
    1d3a:	1f 91       	pop	r17
    1d3c:	0f 91       	pop	r16
    1d3e:	ff 90       	pop	r15
    1d40:	ef 90       	pop	r14
    1d42:	df 90       	pop	r13
    1d44:	cf 90       	pop	r12
    1d46:	bf 90       	pop	r11
    1d48:	af 90       	pop	r10
    1d4a:	9f 90       	pop	r9
    1d4c:	8f 90       	pop	r8
    1d4e:	08 95       	ret

00001d50 <conv_brk>:
    1d50:	4f 92       	push	r4
    1d52:	5f 92       	push	r5
    1d54:	6f 92       	push	r6
    1d56:	7f 92       	push	r7
    1d58:	8f 92       	push	r8
    1d5a:	9f 92       	push	r9
    1d5c:	af 92       	push	r10
    1d5e:	bf 92       	push	r11
    1d60:	cf 92       	push	r12
    1d62:	df 92       	push	r13
    1d64:	ef 92       	push	r14
    1d66:	ff 92       	push	r15
    1d68:	0f 93       	push	r16
    1d6a:	1f 93       	push	r17
    1d6c:	cf 93       	push	r28
    1d6e:	df 93       	push	r29
    1d70:	cd b7       	in	r28, 0x3d	; 61
    1d72:	de b7       	in	r29, 0x3e	; 62
    1d74:	a0 97       	sbiw	r28, 0x20	; 32
    1d76:	0f b6       	in	r0, 0x3f	; 63
    1d78:	f8 94       	cli
    1d7a:	de bf       	out	0x3e, r29	; 62
    1d7c:	0f be       	out	0x3f, r0	; 63
    1d7e:	cd bf       	out	0x3d, r28	; 61
    1d80:	5c 01       	movw	r10, r24
    1d82:	4b 01       	movw	r8, r22
    1d84:	7a 01       	movw	r14, r20
    1d86:	8e 01       	movw	r16, r28
    1d88:	0f 5f       	subi	r16, 0xFF	; 255
    1d8a:	1f 4f       	sbci	r17, 0xFF	; 255
    1d8c:	68 01       	movw	r12, r16
    1d8e:	80 e2       	ldi	r24, 0x20	; 32
    1d90:	f8 01       	movw	r30, r16
    1d92:	11 92       	st	Z+, r1
    1d94:	8a 95       	dec	r24
    1d96:	e9 f7       	brne	.-6      	; 0x1d92 <conv_brk+0x42>
    1d98:	f5 01       	movw	r30, r10
    1d9a:	53 80       	ldd	r5, Z+3	; 0x03
    1d9c:	40 e0       	ldi	r20, 0x00	; 0
    1d9e:	50 e0       	ldi	r21, 0x00	; 0
    1da0:	61 2c       	mov	r6, r1
    1da2:	90 e0       	ldi	r25, 0x00	; 0
    1da4:	71 2c       	mov	r7, r1
    1da6:	a1 e0       	ldi	r26, 0x01	; 1
    1da8:	b0 e0       	ldi	r27, 0x00	; 0
    1daa:	f9 01       	movw	r30, r18
    1dac:	53 fc       	sbrc	r5, 3
    1dae:	85 91       	lpm	r24, Z+
    1db0:	53 fe       	sbrs	r5, 3
    1db2:	81 91       	ld	r24, Z+
    1db4:	8f 01       	movw	r16, r30
    1db6:	48 2e       	mov	r4, r24
    1db8:	9f 01       	movw	r18, r30
    1dba:	81 11       	cpse	r24, r1
    1dbc:	03 c0       	rjmp	.+6      	; 0x1dc4 <conv_brk+0x74>
    1dbe:	80 e0       	ldi	r24, 0x00	; 0
    1dc0:	90 e0       	ldi	r25, 0x00	; 0
    1dc2:	94 c0       	rjmp	.+296    	; 0x1eec <conv_brk+0x19c>
    1dc4:	8e 35       	cpi	r24, 0x5E	; 94
    1dc6:	19 f4       	brne	.+6      	; 0x1dce <conv_brk+0x7e>
    1dc8:	41 15       	cp	r20, r1
    1dca:	51 05       	cpc	r21, r1
    1dcc:	51 f1       	breq	.+84     	; 0x1e22 <conv_brk+0xd2>
    1dce:	67 2d       	mov	r22, r7
    1dd0:	70 e0       	ldi	r23, 0x00	; 0
    1dd2:	64 17       	cp	r22, r20
    1dd4:	75 07       	cpc	r23, r21
    1dd6:	3c f4       	brge	.+14     	; 0x1de6 <conv_brk+0x96>
    1dd8:	8d 35       	cpi	r24, 0x5D	; 93
    1dda:	61 f1       	breq	.+88     	; 0x1e34 <conv_brk+0xe4>
    1ddc:	8d 32       	cpi	r24, 0x2D	; 45
    1dde:	19 f4       	brne	.+6      	; 0x1de6 <conv_brk+0x96>
    1de0:	99 23       	and	r25, r25
    1de2:	11 f1       	breq	.+68     	; 0x1e28 <conv_brk+0xd8>
    1de4:	03 c0       	rjmp	.+6      	; 0x1dec <conv_brk+0x9c>
    1de6:	99 23       	and	r25, r25
    1de8:	09 f4       	brne	.+2      	; 0x1dec <conv_brk+0x9c>
    1dea:	6b c0       	rjmp	.+214    	; 0x1ec2 <conv_brk+0x172>
    1dec:	84 2d       	mov	r24, r4
    1dee:	86 95       	lsr	r24
    1df0:	86 95       	lsr	r24
    1df2:	86 95       	lsr	r24
    1df4:	f6 01       	movw	r30, r12
    1df6:	e8 0f       	add	r30, r24
    1df8:	f1 1d       	adc	r31, r1
    1dfa:	84 2d       	mov	r24, r4
    1dfc:	87 70       	andi	r24, 0x07	; 7
    1dfe:	8d 01       	movw	r16, r26
    1e00:	02 c0       	rjmp	.+4      	; 0x1e06 <conv_brk+0xb6>
    1e02:	00 0f       	add	r16, r16
    1e04:	11 1f       	adc	r17, r17
    1e06:	8a 95       	dec	r24
    1e08:	e2 f7       	brpl	.-8      	; 0x1e02 <conv_brk+0xb2>
    1e0a:	c8 01       	movw	r24, r16
    1e0c:	90 81       	ld	r25, Z
    1e0e:	89 2b       	or	r24, r25
    1e10:	80 83       	st	Z, r24
    1e12:	64 14       	cp	r6, r4
    1e14:	59 f0       	breq	.+22     	; 0x1e2c <conv_brk+0xdc>
    1e16:	46 14       	cp	r4, r6
    1e18:	10 f4       	brcc	.+4      	; 0x1e1e <conv_brk+0xce>
    1e1a:	43 94       	inc	r4
    1e1c:	e7 cf       	rjmp	.-50     	; 0x1dec <conv_brk+0x9c>
    1e1e:	4a 94       	dec	r4
    1e20:	e5 cf       	rjmp	.-54     	; 0x1dec <conv_brk+0x9c>
    1e22:	77 24       	eor	r7, r7
    1e24:	73 94       	inc	r7
    1e26:	03 c0       	rjmp	.+6      	; 0x1e2e <conv_brk+0xde>
    1e28:	91 e0       	ldi	r25, 0x01	; 1
    1e2a:	01 c0       	rjmp	.+2      	; 0x1e2e <conv_brk+0xde>
    1e2c:	90 e0       	ldi	r25, 0x00	; 0
    1e2e:	4f 5f       	subi	r20, 0xFF	; 255
    1e30:	5f 4f       	sbci	r21, 0xFF	; 255
    1e32:	bb cf       	rjmp	.-138    	; 0x1daa <conv_brk+0x5a>
    1e34:	99 23       	and	r25, r25
    1e36:	19 f0       	breq	.+6      	; 0x1e3e <conv_brk+0xee>
    1e38:	8e 81       	ldd	r24, Y+6	; 0x06
    1e3a:	80 62       	ori	r24, 0x20	; 32
    1e3c:	8e 83       	std	Y+6, r24	; 0x06
    1e3e:	71 10       	cpse	r7, r1
    1e40:	03 c0       	rjmp	.+6      	; 0x1e48 <conv_brk+0xf8>
    1e42:	77 24       	eor	r7, r7
    1e44:	73 94       	inc	r7
    1e46:	19 c0       	rjmp	.+50     	; 0x1e7a <conv_brk+0x12a>
    1e48:	f6 01       	movw	r30, r12
    1e4a:	9e 01       	movw	r18, r28
    1e4c:	2f 5d       	subi	r18, 0xDF	; 223
    1e4e:	3f 4f       	sbci	r19, 0xFF	; 255
    1e50:	80 81       	ld	r24, Z
    1e52:	80 95       	com	r24
    1e54:	81 93       	st	Z+, r24
    1e56:	2e 17       	cp	r18, r30
    1e58:	3f 07       	cpc	r19, r31
    1e5a:	d1 f7       	brne	.-12     	; 0x1e50 <conv_brk+0x100>
    1e5c:	f2 cf       	rjmp	.-28     	; 0x1e42 <conv_brk+0xf2>
    1e5e:	e1 14       	cp	r14, r1
    1e60:	f1 04       	cpc	r15, r1
    1e62:	31 f0       	breq	.+12     	; 0x1e70 <conv_brk+0x120>
    1e64:	f7 01       	movw	r30, r14
    1e66:	80 83       	st	Z, r24
    1e68:	b7 01       	movw	r22, r14
    1e6a:	6f 5f       	subi	r22, 0xFF	; 255
    1e6c:	7f 4f       	sbci	r23, 0xFF	; 255
    1e6e:	7b 01       	movw	r14, r22
    1e70:	71 e0       	ldi	r23, 0x01	; 1
    1e72:	87 1a       	sub	r8, r23
    1e74:	91 08       	sbc	r9, r1
    1e76:	71 2c       	mov	r7, r1
    1e78:	e9 f0       	breq	.+58     	; 0x1eb4 <conv_brk+0x164>
    1e7a:	c5 01       	movw	r24, r10
    1e7c:	d4 d4       	rcall	.+2472   	; 0x2826 <fgetc>
    1e7e:	97 fd       	sbrc	r25, 7
    1e80:	17 c0       	rjmp	.+46     	; 0x1eb0 <conv_brk+0x160>
    1e82:	fc 01       	movw	r30, r24
    1e84:	ff 27       	eor	r31, r31
    1e86:	23 e0       	ldi	r18, 0x03	; 3
    1e88:	f5 95       	asr	r31
    1e8a:	e7 95       	ror	r30
    1e8c:	2a 95       	dec	r18
    1e8e:	e1 f7       	brne	.-8      	; 0x1e88 <conv_brk+0x138>
    1e90:	ec 0d       	add	r30, r12
    1e92:	fd 1d       	adc	r31, r13
    1e94:	20 81       	ld	r18, Z
    1e96:	30 e0       	ldi	r19, 0x00	; 0
    1e98:	ac 01       	movw	r20, r24
    1e9a:	47 70       	andi	r20, 0x07	; 7
    1e9c:	55 27       	eor	r21, r21
    1e9e:	02 c0       	rjmp	.+4      	; 0x1ea4 <conv_brk+0x154>
    1ea0:	35 95       	asr	r19
    1ea2:	27 95       	ror	r18
    1ea4:	4a 95       	dec	r20
    1ea6:	e2 f7       	brpl	.-8      	; 0x1ea0 <conv_brk+0x150>
    1ea8:	20 fd       	sbrc	r18, 0
    1eaa:	d9 cf       	rjmp	.-78     	; 0x1e5e <conv_brk+0x10e>
    1eac:	b5 01       	movw	r22, r10
    1eae:	5c d5       	rcall	.+2744   	; 0x2968 <ungetc>
    1eb0:	71 10       	cpse	r7, r1
    1eb2:	85 cf       	rjmp	.-246    	; 0x1dbe <conv_brk+0x6e>
    1eb4:	e1 14       	cp	r14, r1
    1eb6:	f1 04       	cpc	r15, r1
    1eb8:	11 f0       	breq	.+4      	; 0x1ebe <conv_brk+0x16e>
    1eba:	f7 01       	movw	r30, r14
    1ebc:	10 82       	st	Z, r1
    1ebe:	c8 01       	movw	r24, r16
    1ec0:	15 c0       	rjmp	.+42     	; 0x1eec <conv_brk+0x19c>
    1ec2:	68 2f       	mov	r22, r24
    1ec4:	66 95       	lsr	r22
    1ec6:	66 95       	lsr	r22
    1ec8:	66 95       	lsr	r22
    1eca:	f6 01       	movw	r30, r12
    1ecc:	e6 0f       	add	r30, r22
    1ece:	f1 1d       	adc	r31, r1
    1ed0:	68 2f       	mov	r22, r24
    1ed2:	67 70       	andi	r22, 0x07	; 7
    1ed4:	8d 01       	movw	r16, r26
    1ed6:	02 c0       	rjmp	.+4      	; 0x1edc <conv_brk+0x18c>
    1ed8:	00 0f       	add	r16, r16
    1eda:	11 1f       	adc	r17, r17
    1edc:	6a 95       	dec	r22
    1ede:	e2 f7       	brpl	.-8      	; 0x1ed8 <conv_brk+0x188>
    1ee0:	b8 01       	movw	r22, r16
    1ee2:	70 81       	ld	r23, Z
    1ee4:	67 2b       	or	r22, r23
    1ee6:	60 83       	st	Z, r22
    1ee8:	68 2e       	mov	r6, r24
    1eea:	a1 cf       	rjmp	.-190    	; 0x1e2e <conv_brk+0xde>
    1eec:	a0 96       	adiw	r28, 0x20	; 32
    1eee:	0f b6       	in	r0, 0x3f	; 63
    1ef0:	f8 94       	cli
    1ef2:	de bf       	out	0x3e, r29	; 62
    1ef4:	0f be       	out	0x3f, r0	; 63
    1ef6:	cd bf       	out	0x3d, r28	; 61
    1ef8:	df 91       	pop	r29
    1efa:	cf 91       	pop	r28
    1efc:	1f 91       	pop	r17
    1efe:	0f 91       	pop	r16
    1f00:	ff 90       	pop	r15
    1f02:	ef 90       	pop	r14
    1f04:	df 90       	pop	r13
    1f06:	cf 90       	pop	r12
    1f08:	bf 90       	pop	r11
    1f0a:	af 90       	pop	r10
    1f0c:	9f 90       	pop	r9
    1f0e:	8f 90       	pop	r8
    1f10:	7f 90       	pop	r7
    1f12:	6f 90       	pop	r6
    1f14:	5f 90       	pop	r5
    1f16:	4f 90       	pop	r4
    1f18:	08 95       	ret

00001f1a <conv_flt>:
    1f1a:	2f 92       	push	r2
    1f1c:	3f 92       	push	r3
    1f1e:	4f 92       	push	r4
    1f20:	5f 92       	push	r5
    1f22:	6f 92       	push	r6
    1f24:	7f 92       	push	r7
    1f26:	9f 92       	push	r9
    1f28:	af 92       	push	r10
    1f2a:	bf 92       	push	r11
    1f2c:	cf 92       	push	r12
    1f2e:	df 92       	push	r13
    1f30:	ef 92       	push	r14
    1f32:	ff 92       	push	r15
    1f34:	0f 93       	push	r16
    1f36:	1f 93       	push	r17
    1f38:	cf 93       	push	r28
    1f3a:	df 93       	push	r29
    1f3c:	6c 01       	movw	r12, r24
    1f3e:	8b 01       	movw	r16, r22
    1f40:	1a 01       	movw	r2, r20
    1f42:	71 d4       	rcall	.+2274   	; 0x2826 <fgetc>
    1f44:	ec 01       	movw	r28, r24
    1f46:	99 27       	eor	r25, r25
    1f48:	8b 32       	cpi	r24, 0x2B	; 43
    1f4a:	91 05       	cpc	r25, r1
    1f4c:	29 f0       	breq	.+10     	; 0x1f58 <conv_flt+0x3e>
    1f4e:	8d 97       	sbiw	r24, 0x2d	; 45
    1f50:	79 f4       	brne	.+30     	; 0x1f70 <conv_flt+0x56>
    1f52:	30 e8       	ldi	r19, 0x80	; 128
    1f54:	93 2e       	mov	r9, r19
    1f56:	01 c0       	rjmp	.+2      	; 0x1f5a <conv_flt+0x40>
    1f58:	91 2c       	mov	r9, r1
    1f5a:	01 50       	subi	r16, 0x01	; 1
    1f5c:	11 09       	sbc	r17, r1
    1f5e:	11 f4       	brne	.+4      	; 0x1f64 <conv_flt+0x4a>
    1f60:	80 e0       	ldi	r24, 0x00	; 0
    1f62:	fe c0       	rjmp	.+508    	; 0x2160 <conv_flt+0x246>
    1f64:	c6 01       	movw	r24, r12
    1f66:	5f d4       	rcall	.+2238   	; 0x2826 <fgetc>
    1f68:	ec 01       	movw	r28, r24
    1f6a:	97 ff       	sbrs	r25, 7
    1f6c:	02 c0       	rjmp	.+4      	; 0x1f72 <conv_flt+0x58>
    1f6e:	f8 cf       	rjmp	.-16     	; 0x1f60 <conv_flt+0x46>
    1f70:	91 2c       	mov	r9, r1
    1f72:	ce 01       	movw	r24, r28
    1f74:	2f d4       	rcall	.+2142   	; 0x27d4 <tolower>
    1f76:	89 36       	cpi	r24, 0x69	; 105
    1f78:	91 05       	cpc	r25, r1
    1f7a:	31 f0       	breq	.+12     	; 0x1f88 <conv_flt+0x6e>
    1f7c:	8e 36       	cpi	r24, 0x6E	; 110
    1f7e:	91 05       	cpc	r25, r1
    1f80:	81 f5       	brne	.+96     	; 0x1fe2 <conv_flt+0xc8>
    1f82:	c0 ea       	ldi	r28, 0xA0	; 160
    1f84:	d1 e0       	ldi	r29, 0x01	; 1
    1f86:	02 c0       	rjmp	.+4      	; 0x1f8c <conv_flt+0x72>
    1f88:	c3 ea       	ldi	r28, 0xA3	; 163
    1f8a:	d1 e0       	ldi	r29, 0x01	; 1
    1f8c:	21 96       	adiw	r28, 0x01	; 1
    1f8e:	fe 01       	movw	r30, r28
    1f90:	31 97       	sbiw	r30, 0x01	; 1
    1f92:	b4 90       	lpm	r11, Z
    1f94:	bb 20       	and	r11, r11
    1f96:	b1 f0       	breq	.+44     	; 0x1fc4 <conv_flt+0xaa>
    1f98:	01 50       	subi	r16, 0x01	; 1
    1f9a:	11 09       	sbc	r17, r1
    1f9c:	79 f0       	breq	.+30     	; 0x1fbc <conv_flt+0xa2>
    1f9e:	c6 01       	movw	r24, r12
    1fa0:	42 d4       	rcall	.+2180   	; 0x2826 <fgetc>
    1fa2:	7c 01       	movw	r14, r24
    1fa4:	97 fd       	sbrc	r25, 7
    1fa6:	0a c0       	rjmp	.+20     	; 0x1fbc <conv_flt+0xa2>
    1fa8:	15 d4       	rcall	.+2090   	; 0x27d4 <tolower>
    1faa:	99 27       	eor	r25, r25
    1fac:	eb 2d       	mov	r30, r11
    1fae:	f0 e0       	ldi	r31, 0x00	; 0
    1fb0:	8e 17       	cp	r24, r30
    1fb2:	9f 07       	cpc	r25, r31
    1fb4:	59 f3       	breq	.-42     	; 0x1f8c <conv_flt+0x72>
    1fb6:	b6 01       	movw	r22, r12
    1fb8:	c7 01       	movw	r24, r14
    1fba:	d6 d4       	rcall	.+2476   	; 0x2968 <ungetc>
    1fbc:	c6 5a       	subi	r28, 0xA6	; 166
    1fbe:	d1 40       	sbci	r29, 0x01	; 1
    1fc0:	79 f6       	brne	.-98     	; 0x1f60 <conv_flt+0x46>
    1fc2:	03 c0       	rjmp	.+6      	; 0x1fca <conv_flt+0xb0>
    1fc4:	c3 5a       	subi	r28, 0xA3	; 163
    1fc6:	d1 40       	sbci	r29, 0x01	; 1
    1fc8:	29 f0       	breq	.+10     	; 0x1fd4 <conv_flt+0xba>
    1fca:	80 e0       	ldi	r24, 0x00	; 0
    1fcc:	90 e0       	ldi	r25, 0x00	; 0
    1fce:	a0 e8       	ldi	r26, 0x80	; 128
    1fd0:	bf e7       	ldi	r27, 0x7F	; 127
    1fd2:	04 c0       	rjmp	.+8      	; 0x1fdc <conv_flt+0xc2>
    1fd4:	80 e0       	ldi	r24, 0x00	; 0
    1fd6:	90 e0       	ldi	r25, 0x00	; 0
    1fd8:	a0 ec       	ldi	r26, 0xC0	; 192
    1fda:	bf e7       	ldi	r27, 0x7F	; 127
    1fdc:	bc 01       	movw	r22, r24
    1fde:	cd 01       	movw	r24, r26
    1fe0:	af c0       	rjmp	.+350    	; 0x2140 <conv_flt+0x226>
    1fe2:	41 2c       	mov	r4, r1
    1fe4:	51 2c       	mov	r5, r1
    1fe6:	32 01       	movw	r6, r4
    1fe8:	e1 2c       	mov	r14, r1
    1fea:	f1 2c       	mov	r15, r1
    1fec:	2c 2f       	mov	r18, r28
    1fee:	20 53       	subi	r18, 0x30	; 48
    1ff0:	2a 30       	cpi	r18, 0x0A	; 10
    1ff2:	08 f5       	brcc	.+66     	; 0x2036 <conv_flt+0x11c>
    1ff4:	e9 2d       	mov	r30, r9
    1ff6:	e2 60       	ori	r30, 0x02	; 2
    1ff8:	be 2e       	mov	r11, r30
    1ffa:	89 2d       	mov	r24, r9
    1ffc:	88 70       	andi	r24, 0x08	; 8
    1ffe:	92 fe       	sbrs	r9, 2
    2000:	06 c0       	rjmp	.+12     	; 0x200e <conv_flt+0xf4>
    2002:	81 11       	cpse	r24, r1
    2004:	1f c0       	rjmp	.+62     	; 0x2044 <conv_flt+0x12a>
    2006:	ff ef       	ldi	r31, 0xFF	; 255
    2008:	ef 1a       	sub	r14, r31
    200a:	ff 0a       	sbc	r15, r31
    200c:	1b c0       	rjmp	.+54     	; 0x2044 <conv_flt+0x12a>
    200e:	88 23       	and	r24, r24
    2010:	19 f0       	breq	.+6      	; 0x2018 <conv_flt+0xfe>
    2012:	81 e0       	ldi	r24, 0x01	; 1
    2014:	e8 1a       	sub	r14, r24
    2016:	f1 08       	sbc	r15, r1
    2018:	40 e2       	ldi	r20, 0x20	; 32
    201a:	c3 01       	movw	r24, r6
    201c:	b2 01       	movw	r22, r4
    201e:	cb dd       	rcall	.-1130   	; 0x1bb6 <mulacc>
    2020:	2b 01       	movw	r4, r22
    2022:	3c 01       	movw	r6, r24
    2024:	68 39       	cpi	r22, 0x98	; 152
    2026:	79 49       	sbci	r23, 0x99	; 153
    2028:	89 49       	sbci	r24, 0x99	; 153
    202a:	99 41       	sbci	r25, 0x19	; 25
    202c:	58 f0       	brcs	.+22     	; 0x2044 <conv_flt+0x12a>
    202e:	f9 2d       	mov	r31, r9
    2030:	f6 60       	ori	r31, 0x06	; 6
    2032:	bf 2e       	mov	r11, r31
    2034:	07 c0       	rjmp	.+14     	; 0x2044 <conv_flt+0x12a>
    2036:	2e 3f       	cpi	r18, 0xFE	; 254
    2038:	81 f4       	brne	.+32     	; 0x205a <conv_flt+0x140>
    203a:	93 fc       	sbrc	r9, 3
    203c:	0e c0       	rjmp	.+28     	; 0x205a <conv_flt+0x140>
    203e:	29 2d       	mov	r18, r9
    2040:	28 60       	ori	r18, 0x08	; 8
    2042:	b2 2e       	mov	r11, r18
    2044:	01 50       	subi	r16, 0x01	; 1
    2046:	11 09       	sbc	r17, r1
    2048:	39 f0       	breq	.+14     	; 0x2058 <conv_flt+0x13e>
    204a:	c6 01       	movw	r24, r12
    204c:	ec d3       	rcall	.+2008   	; 0x2826 <fgetc>
    204e:	ec 01       	movw	r28, r24
    2050:	9b 2c       	mov	r9, r11
    2052:	97 ff       	sbrs	r25, 7
    2054:	cb cf       	rjmp	.-106    	; 0x1fec <conv_flt+0xd2>
    2056:	01 c0       	rjmp	.+2      	; 0x205a <conv_flt+0x140>
    2058:	9b 2c       	mov	r9, r11
    205a:	91 fe       	sbrs	r9, 1
    205c:	81 cf       	rjmp	.-254    	; 0x1f60 <conv_flt+0x46>
    205e:	ce 01       	movw	r24, r28
    2060:	8f 7d       	andi	r24, 0xDF	; 223
    2062:	99 27       	eor	r25, r25
    2064:	85 34       	cpi	r24, 0x45	; 69
    2066:	91 05       	cpc	r25, r1
    2068:	09 f0       	breq	.+2      	; 0x206c <conv_flt+0x152>
    206a:	3e c0       	rjmp	.+124    	; 0x20e8 <conv_flt+0x1ce>
    206c:	58 01       	movw	r10, r16
    206e:	81 e0       	ldi	r24, 0x01	; 1
    2070:	a8 1a       	sub	r10, r24
    2072:	b1 08       	sbc	r11, r1
    2074:	09 f4       	brne	.+2      	; 0x2078 <conv_flt+0x15e>
    2076:	74 cf       	rjmp	.-280    	; 0x1f60 <conv_flt+0x46>
    2078:	c6 01       	movw	r24, r12
    207a:	d5 d3       	rcall	.+1962   	; 0x2826 <fgetc>
    207c:	ec 01       	movw	r28, r24
    207e:	97 fd       	sbrc	r25, 7
    2080:	6f cf       	rjmp	.-290    	; 0x1f60 <conv_flt+0x46>
    2082:	99 27       	eor	r25, r25
    2084:	8b 32       	cpi	r24, 0x2B	; 43
    2086:	91 05       	cpc	r25, r1
    2088:	29 f0       	breq	.+10     	; 0x2094 <conv_flt+0x17a>
    208a:	8d 97       	sbiw	r24, 0x2d	; 45
    208c:	61 f4       	brne	.+24     	; 0x20a6 <conv_flt+0x18c>
    208e:	e9 2d       	mov	r30, r9
    2090:	e0 61       	ori	r30, 0x10	; 16
    2092:	9e 2e       	mov	r9, r30
    2094:	58 01       	movw	r10, r16
    2096:	f2 e0       	ldi	r31, 0x02	; 2
    2098:	af 1a       	sub	r10, r31
    209a:	b1 08       	sbc	r11, r1
    209c:	09 f4       	brne	.+2      	; 0x20a0 <conv_flt+0x186>
    209e:	60 cf       	rjmp	.-320    	; 0x1f60 <conv_flt+0x46>
    20a0:	c6 01       	movw	r24, r12
    20a2:	c1 d3       	rcall	.+1922   	; 0x2826 <fgetc>
    20a4:	ec 01       	movw	r28, r24
    20a6:	ce 01       	movw	r24, r28
    20a8:	c0 97       	sbiw	r24, 0x30	; 48
    20aa:	0a 97       	sbiw	r24, 0x0a	; 10
    20ac:	08 f0       	brcs	.+2      	; 0x20b0 <conv_flt+0x196>
    20ae:	58 cf       	rjmp	.-336    	; 0x1f60 <conv_flt+0x46>
    20b0:	85 01       	movw	r16, r10
    20b2:	a1 2c       	mov	r10, r1
    20b4:	b1 2c       	mov	r11, r1
    20b6:	b5 01       	movw	r22, r10
    20b8:	bb 0c       	add	r11, r11
    20ba:	88 0b       	sbc	r24, r24
    20bc:	99 0b       	sbc	r25, r25
    20be:	2c 2f       	mov	r18, r28
    20c0:	20 53       	subi	r18, 0x30	; 48
    20c2:	40 e2       	ldi	r20, 0x20	; 32
    20c4:	78 dd       	rcall	.-1296   	; 0x1bb6 <mulacc>
    20c6:	5b 01       	movw	r10, r22
    20c8:	01 50       	subi	r16, 0x01	; 1
    20ca:	11 09       	sbc	r17, r1
    20cc:	31 f0       	breq	.+12     	; 0x20da <conv_flt+0x1c0>
    20ce:	c6 01       	movw	r24, r12
    20d0:	aa d3       	rcall	.+1876   	; 0x2826 <fgetc>
    20d2:	ec 01       	movw	r28, r24
    20d4:	c0 97       	sbiw	r24, 0x30	; 48
    20d6:	0a 97       	sbiw	r24, 0x0a	; 10
    20d8:	70 f3       	brcs	.-36     	; 0x20b6 <conv_flt+0x19c>
    20da:	94 fe       	sbrs	r9, 4
    20dc:	03 c0       	rjmp	.+6      	; 0x20e4 <conv_flt+0x1ca>
    20de:	b1 94       	neg	r11
    20e0:	a1 94       	neg	r10
    20e2:	b1 08       	sbc	r11, r1
    20e4:	ea 0c       	add	r14, r10
    20e6:	fb 1c       	adc	r15, r11
    20e8:	01 2b       	or	r16, r17
    20ea:	29 f0       	breq	.+10     	; 0x20f6 <conv_flt+0x1dc>
    20ec:	d7 fd       	sbrc	r29, 7
    20ee:	03 c0       	rjmp	.+6      	; 0x20f6 <conv_flt+0x1dc>
    20f0:	b6 01       	movw	r22, r12
    20f2:	ce 01       	movw	r24, r28
    20f4:	39 d4       	rcall	.+2162   	; 0x2968 <ungetc>
    20f6:	c3 01       	movw	r24, r6
    20f8:	b2 01       	movw	r22, r4
    20fa:	79 d1       	rcall	.+754    	; 0x23ee <__floatunsisf>
    20fc:	f7 fe       	sbrs	r15, 7
    20fe:	06 c0       	rjmp	.+12     	; 0x210c <conv_flt+0x1f2>
    2100:	f1 94       	neg	r15
    2102:	e1 94       	neg	r14
    2104:	f1 08       	sbc	r15, r1
    2106:	cf eb       	ldi	r28, 0xBF	; 191
    2108:	d1 e0       	ldi	r29, 0x01	; 1
    210a:	02 c0       	rjmp	.+4      	; 0x2110 <conv_flt+0x1f6>
    210c:	c7 ed       	ldi	r28, 0xD7	; 215
    210e:	d1 e0       	ldi	r29, 0x01	; 1
    2110:	6e 01       	movw	r12, r28
    2112:	28 e1       	ldi	r18, 0x18	; 24
    2114:	c2 1a       	sub	r12, r18
    2116:	d1 08       	sbc	r13, r1
    2118:	00 e2       	ldi	r16, 0x20	; 32
    211a:	10 e0       	ldi	r17, 0x00	; 0
    211c:	e0 16       	cp	r14, r16
    211e:	f1 06       	cpc	r15, r17
    2120:	48 f0       	brcs	.+18     	; 0x2134 <conv_flt+0x21a>
    2122:	fe 01       	movw	r30, r28
    2124:	25 91       	lpm	r18, Z+
    2126:	35 91       	lpm	r19, Z+
    2128:	45 91       	lpm	r20, Z+
    212a:	54 91       	lpm	r21, Z
    212c:	9d d1       	rcall	.+826    	; 0x2468 <__mulsf3>
    212e:	e0 1a       	sub	r14, r16
    2130:	f1 0a       	sbc	r15, r17
    2132:	f4 cf       	rjmp	.-24     	; 0x211c <conv_flt+0x202>
    2134:	24 97       	sbiw	r28, 0x04	; 4
    2136:	16 95       	lsr	r17
    2138:	07 95       	ror	r16
    213a:	cc 16       	cp	r12, r28
    213c:	dd 06       	cpc	r13, r29
    213e:	71 f7       	brne	.-36     	; 0x211c <conv_flt+0x202>
    2140:	97 fe       	sbrs	r9, 7
    2142:	05 c0       	rjmp	.+10     	; 0x214e <conv_flt+0x234>
    2144:	dc 01       	movw	r26, r24
    2146:	cb 01       	movw	r24, r22
    2148:	b0 58       	subi	r27, 0x80	; 128
    214a:	bc 01       	movw	r22, r24
    214c:	cd 01       	movw	r24, r26
    214e:	21 14       	cp	r2, r1
    2150:	31 04       	cpc	r3, r1
    2152:	29 f0       	breq	.+10     	; 0x215e <conv_flt+0x244>
    2154:	f1 01       	movw	r30, r2
    2156:	60 83       	st	Z, r22
    2158:	71 83       	std	Z+1, r23	; 0x01
    215a:	82 83       	std	Z+2, r24	; 0x02
    215c:	93 83       	std	Z+3, r25	; 0x03
    215e:	81 e0       	ldi	r24, 0x01	; 1
    2160:	df 91       	pop	r29
    2162:	cf 91       	pop	r28
    2164:	1f 91       	pop	r17
    2166:	0f 91       	pop	r16
    2168:	ff 90       	pop	r15
    216a:	ef 90       	pop	r14
    216c:	df 90       	pop	r13
    216e:	cf 90       	pop	r12
    2170:	bf 90       	pop	r11
    2172:	af 90       	pop	r10
    2174:	9f 90       	pop	r9
    2176:	7f 90       	pop	r7
    2178:	6f 90       	pop	r6
    217a:	5f 90       	pop	r5
    217c:	4f 90       	pop	r4
    217e:	3f 90       	pop	r3
    2180:	2f 90       	pop	r2
    2182:	08 95       	ret

00002184 <vfscanf>:
    2184:	6f 92       	push	r6
    2186:	7f 92       	push	r7
    2188:	8f 92       	push	r8
    218a:	9f 92       	push	r9
    218c:	af 92       	push	r10
    218e:	bf 92       	push	r11
    2190:	cf 92       	push	r12
    2192:	df 92       	push	r13
    2194:	ef 92       	push	r14
    2196:	ff 92       	push	r15
    2198:	0f 93       	push	r16
    219a:	1f 93       	push	r17
    219c:	cf 93       	push	r28
    219e:	df 93       	push	r29
    21a0:	5c 01       	movw	r10, r24
    21a2:	eb 01       	movw	r28, r22
    21a4:	4a 01       	movw	r8, r20
    21a6:	fc 01       	movw	r30, r24
    21a8:	17 82       	std	Z+7, r1	; 0x07
    21aa:	16 82       	std	Z+6, r1	; 0x06
    21ac:	61 2c       	mov	r6, r1
    21ae:	f5 01       	movw	r30, r10
    21b0:	03 81       	ldd	r16, Z+3	; 0x03
    21b2:	fe 01       	movw	r30, r28
    21b4:	03 fd       	sbrc	r16, 3
    21b6:	85 91       	lpm	r24, Z+
    21b8:	03 ff       	sbrs	r16, 3
    21ba:	81 91       	ld	r24, Z+
    21bc:	18 2f       	mov	r17, r24
    21be:	ef 01       	movw	r28, r30
    21c0:	88 23       	and	r24, r24
    21c2:	09 f4       	brne	.+2      	; 0x21c6 <vfscanf+0x42>
    21c4:	00 c1       	rjmp	.+512    	; 0x23c6 <vfscanf+0x242>
    21c6:	90 e0       	ldi	r25, 0x00	; 0
    21c8:	fd d2       	rcall	.+1530   	; 0x27c4 <isspace>
    21ca:	89 2b       	or	r24, r25
    21cc:	19 f0       	breq	.+6      	; 0x21d4 <vfscanf+0x50>
    21ce:	c5 01       	movw	r24, r10
    21d0:	19 dd       	rcall	.-1486   	; 0x1c04 <skip_spaces>
    21d2:	ed cf       	rjmp	.-38     	; 0x21ae <vfscanf+0x2a>
    21d4:	15 32       	cpi	r17, 0x25	; 37
    21d6:	41 f4       	brne	.+16     	; 0x21e8 <vfscanf+0x64>
    21d8:	fe 01       	movw	r30, r28
    21da:	03 fd       	sbrc	r16, 3
    21dc:	15 91       	lpm	r17, Z+
    21de:	03 ff       	sbrs	r16, 3
    21e0:	11 91       	ld	r17, Z+
    21e2:	ef 01       	movw	r28, r30
    21e4:	15 32       	cpi	r17, 0x25	; 37
    21e6:	71 f4       	brne	.+28     	; 0x2204 <vfscanf+0x80>
    21e8:	c5 01       	movw	r24, r10
    21ea:	1d d3       	rcall	.+1594   	; 0x2826 <fgetc>
    21ec:	97 fd       	sbrc	r25, 7
    21ee:	e9 c0       	rjmp	.+466    	; 0x23c2 <vfscanf+0x23e>
    21f0:	41 2f       	mov	r20, r17
    21f2:	50 e0       	ldi	r21, 0x00	; 0
    21f4:	9c 01       	movw	r18, r24
    21f6:	33 27       	eor	r19, r19
    21f8:	24 17       	cp	r18, r20
    21fa:	35 07       	cpc	r19, r21
    21fc:	c1 f2       	breq	.-80     	; 0x21ae <vfscanf+0x2a>
    21fe:	b5 01       	movw	r22, r10
    2200:	b3 d3       	rcall	.+1894   	; 0x2968 <ungetc>
    2202:	e1 c0       	rjmp	.+450    	; 0x23c6 <vfscanf+0x242>
    2204:	1a 32       	cpi	r17, 0x2A	; 42
    2206:	41 f4       	brne	.+16     	; 0x2218 <vfscanf+0x94>
    2208:	03 fd       	sbrc	r16, 3
    220a:	15 91       	lpm	r17, Z+
    220c:	03 ff       	sbrs	r16, 3
    220e:	11 91       	ld	r17, Z+
    2210:	ef 01       	movw	r28, r30
    2212:	77 24       	eor	r7, r7
    2214:	73 94       	inc	r7
    2216:	01 c0       	rjmp	.+2      	; 0x221a <vfscanf+0x96>
    2218:	71 2c       	mov	r7, r1
    221a:	e1 2c       	mov	r14, r1
    221c:	f1 2c       	mov	r15, r1
    221e:	20 ed       	ldi	r18, 0xD0	; 208
    2220:	21 0f       	add	r18, r17
    2222:	2a 30       	cpi	r18, 0x0A	; 10
    2224:	80 f4       	brcc	.+32     	; 0x2246 <vfscanf+0xc2>
    2226:	f7 2d       	mov	r31, r7
    2228:	f2 60       	ori	r31, 0x02	; 2
    222a:	7f 2e       	mov	r7, r31
    222c:	b7 01       	movw	r22, r14
    222e:	80 e0       	ldi	r24, 0x00	; 0
    2230:	90 e0       	ldi	r25, 0x00	; 0
    2232:	40 e2       	ldi	r20, 0x20	; 32
    2234:	c0 dc       	rcall	.-1664   	; 0x1bb6 <mulacc>
    2236:	7b 01       	movw	r14, r22
    2238:	fe 01       	movw	r30, r28
    223a:	03 fd       	sbrc	r16, 3
    223c:	15 91       	lpm	r17, Z+
    223e:	03 ff       	sbrs	r16, 3
    2240:	11 91       	ld	r17, Z+
    2242:	ef 01       	movw	r28, r30
    2244:	ec cf       	rjmp	.-40     	; 0x221e <vfscanf+0x9a>
    2246:	71 fe       	sbrs	r7, 1
    2248:	04 c0       	rjmp	.+8      	; 0x2252 <vfscanf+0xce>
    224a:	e1 14       	cp	r14, r1
    224c:	f1 04       	cpc	r15, r1
    224e:	21 f4       	brne	.+8      	; 0x2258 <vfscanf+0xd4>
    2250:	ba c0       	rjmp	.+372    	; 0x23c6 <vfscanf+0x242>
    2252:	ee 24       	eor	r14, r14
    2254:	ea 94       	dec	r14
    2256:	fe 2c       	mov	r15, r14
    2258:	18 36       	cpi	r17, 0x68	; 104
    225a:	19 f0       	breq	.+6      	; 0x2262 <vfscanf+0xde>
    225c:	1c 36       	cpi	r17, 0x6C	; 108
    225e:	61 f0       	breq	.+24     	; 0x2278 <vfscanf+0xf4>
    2260:	14 c0       	rjmp	.+40     	; 0x228a <vfscanf+0x106>
    2262:	fe 01       	movw	r30, r28
    2264:	03 fd       	sbrc	r16, 3
    2266:	15 91       	lpm	r17, Z+
    2268:	03 ff       	sbrs	r16, 3
    226a:	11 91       	ld	r17, Z+
    226c:	ef 01       	movw	r28, r30
    226e:	18 36       	cpi	r17, 0x68	; 104
    2270:	61 f4       	brne	.+24     	; 0x228a <vfscanf+0x106>
    2272:	87 2d       	mov	r24, r7
    2274:	88 60       	ori	r24, 0x08	; 8
    2276:	78 2e       	mov	r7, r24
    2278:	97 2d       	mov	r25, r7
    227a:	94 60       	ori	r25, 0x04	; 4
    227c:	79 2e       	mov	r7, r25
    227e:	fe 01       	movw	r30, r28
    2280:	03 fd       	sbrc	r16, 3
    2282:	15 91       	lpm	r17, Z+
    2284:	03 ff       	sbrs	r16, 3
    2286:	11 91       	ld	r17, Z+
    2288:	ef 01       	movw	r28, r30
    228a:	11 23       	and	r17, r17
    228c:	09 f4       	brne	.+2      	; 0x2290 <vfscanf+0x10c>
    228e:	9b c0       	rjmp	.+310    	; 0x23c6 <vfscanf+0x242>
    2290:	61 2f       	mov	r22, r17
    2292:	70 e0       	ldi	r23, 0x00	; 0
    2294:	8e e8       	ldi	r24, 0x8E	; 142
    2296:	91 e0       	ldi	r25, 0x01	; 1
    2298:	a5 d2       	rcall	.+1354   	; 0x27e4 <strchr_P>
    229a:	89 2b       	or	r24, r25
    229c:	09 f4       	brne	.+2      	; 0x22a0 <vfscanf+0x11c>
    229e:	93 c0       	rjmp	.+294    	; 0x23c6 <vfscanf+0x242>
    22a0:	70 fc       	sbrc	r7, 0
    22a2:	07 c0       	rjmp	.+14     	; 0x22b2 <vfscanf+0x12e>
    22a4:	f4 01       	movw	r30, r8
    22a6:	c0 80       	ld	r12, Z
    22a8:	d1 80       	ldd	r13, Z+1	; 0x01
    22aa:	c4 01       	movw	r24, r8
    22ac:	02 96       	adiw	r24, 0x02	; 2
    22ae:	4c 01       	movw	r8, r24
    22b0:	02 c0       	rjmp	.+4      	; 0x22b6 <vfscanf+0x132>
    22b2:	c1 2c       	mov	r12, r1
    22b4:	d1 2c       	mov	r13, r1
    22b6:	1e 36       	cpi	r17, 0x6E	; 110
    22b8:	49 f4       	brne	.+18     	; 0x22cc <vfscanf+0x148>
    22ba:	f5 01       	movw	r30, r10
    22bc:	46 81       	ldd	r20, Z+6	; 0x06
    22be:	57 81       	ldd	r21, Z+7	; 0x07
    22c0:	60 e0       	ldi	r22, 0x00	; 0
    22c2:	70 e0       	ldi	r23, 0x00	; 0
    22c4:	27 2d       	mov	r18, r7
    22c6:	c6 01       	movw	r24, r12
    22c8:	6a dc       	rcall	.-1836   	; 0x1b9e <putval>
    22ca:	71 cf       	rjmp	.-286    	; 0x21ae <vfscanf+0x2a>
    22cc:	13 36       	cpi	r17, 0x63	; 99
    22ce:	b1 f4       	brne	.+44     	; 0x22fc <vfscanf+0x178>
    22d0:	71 fc       	sbrc	r7, 1
    22d2:	03 c0       	rjmp	.+6      	; 0x22da <vfscanf+0x156>
    22d4:	ee 24       	eor	r14, r14
    22d6:	e3 94       	inc	r14
    22d8:	f1 2c       	mov	r15, r1
    22da:	c5 01       	movw	r24, r10
    22dc:	a4 d2       	rcall	.+1352   	; 0x2826 <fgetc>
    22de:	97 fd       	sbrc	r25, 7
    22e0:	70 c0       	rjmp	.+224    	; 0x23c2 <vfscanf+0x23e>
    22e2:	c1 14       	cp	r12, r1
    22e4:	d1 04       	cpc	r13, r1
    22e6:	29 f0       	breq	.+10     	; 0x22f2 <vfscanf+0x16e>
    22e8:	f6 01       	movw	r30, r12
    22ea:	80 83       	st	Z, r24
    22ec:	c6 01       	movw	r24, r12
    22ee:	01 96       	adiw	r24, 0x01	; 1
    22f0:	6c 01       	movw	r12, r24
    22f2:	91 e0       	ldi	r25, 0x01	; 1
    22f4:	e9 1a       	sub	r14, r25
    22f6:	f1 08       	sbc	r15, r1
    22f8:	81 f7       	brne	.-32     	; 0x22da <vfscanf+0x156>
    22fa:	5f c0       	rjmp	.+190    	; 0x23ba <vfscanf+0x236>
    22fc:	1b 35       	cpi	r17, 0x5B	; 91
    22fe:	51 f4       	brne	.+20     	; 0x2314 <vfscanf+0x190>
    2300:	9e 01       	movw	r18, r28
    2302:	a6 01       	movw	r20, r12
    2304:	b7 01       	movw	r22, r14
    2306:	c5 01       	movw	r24, r10
    2308:	23 dd       	rcall	.-1466   	; 0x1d50 <conv_brk>
    230a:	ec 01       	movw	r28, r24
    230c:	89 2b       	or	r24, r25
    230e:	09 f0       	breq	.+2      	; 0x2312 <vfscanf+0x18e>
    2310:	54 c0       	rjmp	.+168    	; 0x23ba <vfscanf+0x236>
    2312:	4e c0       	rjmp	.+156    	; 0x23b0 <vfscanf+0x22c>
    2314:	c5 01       	movw	r24, r10
    2316:	76 dc       	rcall	.-1812   	; 0x1c04 <skip_spaces>
    2318:	97 fd       	sbrc	r25, 7
    231a:	53 c0       	rjmp	.+166    	; 0x23c2 <vfscanf+0x23e>
    231c:	1f 36       	cpi	r17, 0x6F	; 111
    231e:	c9 f1       	breq	.+114    	; 0x2392 <vfscanf+0x20e>
    2320:	40 f4       	brcc	.+16     	; 0x2332 <vfscanf+0x1ae>
    2322:	14 36       	cpi	r17, 0x64	; 100
    2324:	91 f1       	breq	.+100    	; 0x238a <vfscanf+0x206>
    2326:	19 36       	cpi	r17, 0x69	; 105
    2328:	b9 f1       	breq	.+110    	; 0x2398 <vfscanf+0x214>
    232a:	18 35       	cpi	r17, 0x58	; 88
    232c:	09 f0       	breq	.+2      	; 0x2330 <vfscanf+0x1ac>
    232e:	3a c0       	rjmp	.+116    	; 0x23a4 <vfscanf+0x220>
    2330:	28 c0       	rjmp	.+80     	; 0x2382 <vfscanf+0x1fe>
    2332:	13 37       	cpi	r17, 0x73	; 115
    2334:	a9 f0       	breq	.+42     	; 0x2360 <vfscanf+0x1dc>
    2336:	18 f4       	brcc	.+6      	; 0x233e <vfscanf+0x1ba>
    2338:	10 37       	cpi	r17, 0x70	; 112
    233a:	19 f1       	breq	.+70     	; 0x2382 <vfscanf+0x1fe>
    233c:	33 c0       	rjmp	.+102    	; 0x23a4 <vfscanf+0x220>
    233e:	15 37       	cpi	r17, 0x75	; 117
    2340:	21 f1       	breq	.+72     	; 0x238a <vfscanf+0x206>
    2342:	18 37       	cpi	r17, 0x78	; 120
    2344:	f1 f0       	breq	.+60     	; 0x2382 <vfscanf+0x1fe>
    2346:	2e c0       	rjmp	.+92     	; 0x23a4 <vfscanf+0x220>
    2348:	c1 14       	cp	r12, r1
    234a:	d1 04       	cpc	r13, r1
    234c:	29 f0       	breq	.+10     	; 0x2358 <vfscanf+0x1d4>
    234e:	f6 01       	movw	r30, r12
    2350:	00 83       	st	Z, r16
    2352:	c6 01       	movw	r24, r12
    2354:	01 96       	adiw	r24, 0x01	; 1
    2356:	6c 01       	movw	r12, r24
    2358:	91 e0       	ldi	r25, 0x01	; 1
    235a:	e9 1a       	sub	r14, r25
    235c:	f1 08       	sbc	r15, r1
    235e:	59 f0       	breq	.+22     	; 0x2376 <vfscanf+0x1f2>
    2360:	c5 01       	movw	r24, r10
    2362:	61 d2       	rcall	.+1218   	; 0x2826 <fgetc>
    2364:	8c 01       	movw	r16, r24
    2366:	97 fd       	sbrc	r25, 7
    2368:	06 c0       	rjmp	.+12     	; 0x2376 <vfscanf+0x1f2>
    236a:	2c d2       	rcall	.+1112   	; 0x27c4 <isspace>
    236c:	89 2b       	or	r24, r25
    236e:	61 f3       	breq	.-40     	; 0x2348 <vfscanf+0x1c4>
    2370:	b5 01       	movw	r22, r10
    2372:	c8 01       	movw	r24, r16
    2374:	f9 d2       	rcall	.+1522   	; 0x2968 <ungetc>
    2376:	c1 14       	cp	r12, r1
    2378:	d1 04       	cpc	r13, r1
    237a:	f9 f0       	breq	.+62     	; 0x23ba <vfscanf+0x236>
    237c:	f6 01       	movw	r30, r12
    237e:	10 82       	st	Z, r1
    2380:	1c c0       	rjmp	.+56     	; 0x23ba <vfscanf+0x236>
    2382:	f7 2d       	mov	r31, r7
    2384:	f0 64       	ori	r31, 0x40	; 64
    2386:	7f 2e       	mov	r7, r31
    2388:	07 c0       	rjmp	.+14     	; 0x2398 <vfscanf+0x214>
    238a:	87 2d       	mov	r24, r7
    238c:	80 62       	ori	r24, 0x20	; 32
    238e:	78 2e       	mov	r7, r24
    2390:	03 c0       	rjmp	.+6      	; 0x2398 <vfscanf+0x214>
    2392:	97 2d       	mov	r25, r7
    2394:	90 61       	ori	r25, 0x10	; 16
    2396:	79 2e       	mov	r7, r25
    2398:	27 2d       	mov	r18, r7
    239a:	a6 01       	movw	r20, r12
    239c:	b7 01       	movw	r22, r14
    239e:	c5 01       	movw	r24, r10
    23a0:	47 dc       	rcall	.-1906   	; 0x1c30 <conv_int>
    23a2:	04 c0       	rjmp	.+8      	; 0x23ac <vfscanf+0x228>
    23a4:	a6 01       	movw	r20, r12
    23a6:	b7 01       	movw	r22, r14
    23a8:	c5 01       	movw	r24, r10
    23aa:	b7 dd       	rcall	.-1170   	; 0x1f1a <conv_flt>
    23ac:	81 11       	cpse	r24, r1
    23ae:	05 c0       	rjmp	.+10     	; 0x23ba <vfscanf+0x236>
    23b0:	f5 01       	movw	r30, r10
    23b2:	83 81       	ldd	r24, Z+3	; 0x03
    23b4:	80 73       	andi	r24, 0x30	; 48
    23b6:	29 f4       	brne	.+10     	; 0x23c2 <vfscanf+0x23e>
    23b8:	06 c0       	rjmp	.+12     	; 0x23c6 <vfscanf+0x242>
    23ba:	70 fc       	sbrc	r7, 0
    23bc:	f8 ce       	rjmp	.-528    	; 0x21ae <vfscanf+0x2a>
    23be:	63 94       	inc	r6
    23c0:	f6 ce       	rjmp	.-532    	; 0x21ae <vfscanf+0x2a>
    23c2:	66 20       	and	r6, r6
    23c4:	19 f0       	breq	.+6      	; 0x23cc <vfscanf+0x248>
    23c6:	86 2d       	mov	r24, r6
    23c8:	90 e0       	ldi	r25, 0x00	; 0
    23ca:	02 c0       	rjmp	.+4      	; 0x23d0 <vfscanf+0x24c>
    23cc:	8f ef       	ldi	r24, 0xFF	; 255
    23ce:	9f ef       	ldi	r25, 0xFF	; 255
    23d0:	df 91       	pop	r29
    23d2:	cf 91       	pop	r28
    23d4:	1f 91       	pop	r17
    23d6:	0f 91       	pop	r16
    23d8:	ff 90       	pop	r15
    23da:	ef 90       	pop	r14
    23dc:	df 90       	pop	r13
    23de:	cf 90       	pop	r12
    23e0:	bf 90       	pop	r11
    23e2:	af 90       	pop	r10
    23e4:	9f 90       	pop	r9
    23e6:	8f 90       	pop	r8
    23e8:	7f 90       	pop	r7
    23ea:	6f 90       	pop	r6
    23ec:	08 95       	ret

000023ee <__floatunsisf>:
    23ee:	e8 94       	clt
    23f0:	09 c0       	rjmp	.+18     	; 0x2404 <__floatsisf+0x12>

000023f2 <__floatsisf>:
    23f2:	97 fb       	bst	r25, 7
    23f4:	3e f4       	brtc	.+14     	; 0x2404 <__floatsisf+0x12>
    23f6:	90 95       	com	r25
    23f8:	80 95       	com	r24
    23fa:	70 95       	com	r23
    23fc:	61 95       	neg	r22
    23fe:	7f 4f       	sbci	r23, 0xFF	; 255
    2400:	8f 4f       	sbci	r24, 0xFF	; 255
    2402:	9f 4f       	sbci	r25, 0xFF	; 255
    2404:	99 23       	and	r25, r25
    2406:	a9 f0       	breq	.+42     	; 0x2432 <__floatsisf+0x40>
    2408:	f9 2f       	mov	r31, r25
    240a:	96 e9       	ldi	r25, 0x96	; 150
    240c:	bb 27       	eor	r27, r27
    240e:	93 95       	inc	r25
    2410:	f6 95       	lsr	r31
    2412:	87 95       	ror	r24
    2414:	77 95       	ror	r23
    2416:	67 95       	ror	r22
    2418:	b7 95       	ror	r27
    241a:	f1 11       	cpse	r31, r1
    241c:	f8 cf       	rjmp	.-16     	; 0x240e <__floatsisf+0x1c>
    241e:	fa f4       	brpl	.+62     	; 0x245e <__floatsisf+0x6c>
    2420:	bb 0f       	add	r27, r27
    2422:	11 f4       	brne	.+4      	; 0x2428 <__floatsisf+0x36>
    2424:	60 ff       	sbrs	r22, 0
    2426:	1b c0       	rjmp	.+54     	; 0x245e <__floatsisf+0x6c>
    2428:	6f 5f       	subi	r22, 0xFF	; 255
    242a:	7f 4f       	sbci	r23, 0xFF	; 255
    242c:	8f 4f       	sbci	r24, 0xFF	; 255
    242e:	9f 4f       	sbci	r25, 0xFF	; 255
    2430:	16 c0       	rjmp	.+44     	; 0x245e <__floatsisf+0x6c>
    2432:	88 23       	and	r24, r24
    2434:	11 f0       	breq	.+4      	; 0x243a <__floatsisf+0x48>
    2436:	96 e9       	ldi	r25, 0x96	; 150
    2438:	11 c0       	rjmp	.+34     	; 0x245c <__floatsisf+0x6a>
    243a:	77 23       	and	r23, r23
    243c:	21 f0       	breq	.+8      	; 0x2446 <__floatsisf+0x54>
    243e:	9e e8       	ldi	r25, 0x8E	; 142
    2440:	87 2f       	mov	r24, r23
    2442:	76 2f       	mov	r23, r22
    2444:	05 c0       	rjmp	.+10     	; 0x2450 <__floatsisf+0x5e>
    2446:	66 23       	and	r22, r22
    2448:	71 f0       	breq	.+28     	; 0x2466 <__floatsisf+0x74>
    244a:	96 e8       	ldi	r25, 0x86	; 134
    244c:	86 2f       	mov	r24, r22
    244e:	70 e0       	ldi	r23, 0x00	; 0
    2450:	60 e0       	ldi	r22, 0x00	; 0
    2452:	2a f0       	brmi	.+10     	; 0x245e <__floatsisf+0x6c>
    2454:	9a 95       	dec	r25
    2456:	66 0f       	add	r22, r22
    2458:	77 1f       	adc	r23, r23
    245a:	88 1f       	adc	r24, r24
    245c:	da f7       	brpl	.-10     	; 0x2454 <__floatsisf+0x62>
    245e:	88 0f       	add	r24, r24
    2460:	96 95       	lsr	r25
    2462:	87 95       	ror	r24
    2464:	97 f9       	bld	r25, 7
    2466:	08 95       	ret

00002468 <__mulsf3>:
    2468:	0b d0       	rcall	.+22     	; 0x2480 <__mulsf3x>
    246a:	78 c0       	rjmp	.+240    	; 0x255c <__fp_round>
    246c:	69 d0       	rcall	.+210    	; 0x2540 <__fp_pscA>
    246e:	28 f0       	brcs	.+10     	; 0x247a <__mulsf3+0x12>
    2470:	6e d0       	rcall	.+220    	; 0x254e <__fp_pscB>
    2472:	18 f0       	brcs	.+6      	; 0x247a <__mulsf3+0x12>
    2474:	95 23       	and	r25, r21
    2476:	09 f0       	breq	.+2      	; 0x247a <__mulsf3+0x12>
    2478:	5a c0       	rjmp	.+180    	; 0x252e <__fp_inf>
    247a:	5f c0       	rjmp	.+190    	; 0x253a <__fp_nan>
    247c:	11 24       	eor	r1, r1
    247e:	a2 c0       	rjmp	.+324    	; 0x25c4 <__fp_szero>

00002480 <__mulsf3x>:
    2480:	7e d0       	rcall	.+252    	; 0x257e <__fp_split3>
    2482:	a0 f3       	brcs	.-24     	; 0x246c <__mulsf3+0x4>

00002484 <__mulsf3_pse>:
    2484:	95 9f       	mul	r25, r21
    2486:	d1 f3       	breq	.-12     	; 0x247c <__mulsf3+0x14>
    2488:	95 0f       	add	r25, r21
    248a:	50 e0       	ldi	r21, 0x00	; 0
    248c:	55 1f       	adc	r21, r21
    248e:	62 9f       	mul	r22, r18
    2490:	f0 01       	movw	r30, r0
    2492:	72 9f       	mul	r23, r18
    2494:	bb 27       	eor	r27, r27
    2496:	f0 0d       	add	r31, r0
    2498:	b1 1d       	adc	r27, r1
    249a:	63 9f       	mul	r22, r19
    249c:	aa 27       	eor	r26, r26
    249e:	f0 0d       	add	r31, r0
    24a0:	b1 1d       	adc	r27, r1
    24a2:	aa 1f       	adc	r26, r26
    24a4:	64 9f       	mul	r22, r20
    24a6:	66 27       	eor	r22, r22
    24a8:	b0 0d       	add	r27, r0
    24aa:	a1 1d       	adc	r26, r1
    24ac:	66 1f       	adc	r22, r22
    24ae:	82 9f       	mul	r24, r18
    24b0:	22 27       	eor	r18, r18
    24b2:	b0 0d       	add	r27, r0
    24b4:	a1 1d       	adc	r26, r1
    24b6:	62 1f       	adc	r22, r18
    24b8:	73 9f       	mul	r23, r19
    24ba:	b0 0d       	add	r27, r0
    24bc:	a1 1d       	adc	r26, r1
    24be:	62 1f       	adc	r22, r18
    24c0:	83 9f       	mul	r24, r19
    24c2:	a0 0d       	add	r26, r0
    24c4:	61 1d       	adc	r22, r1
    24c6:	22 1f       	adc	r18, r18
    24c8:	74 9f       	mul	r23, r20
    24ca:	33 27       	eor	r19, r19
    24cc:	a0 0d       	add	r26, r0
    24ce:	61 1d       	adc	r22, r1
    24d0:	23 1f       	adc	r18, r19
    24d2:	84 9f       	mul	r24, r20
    24d4:	60 0d       	add	r22, r0
    24d6:	21 1d       	adc	r18, r1
    24d8:	82 2f       	mov	r24, r18
    24da:	76 2f       	mov	r23, r22
    24dc:	6a 2f       	mov	r22, r26
    24de:	11 24       	eor	r1, r1
    24e0:	9f 57       	subi	r25, 0x7F	; 127
    24e2:	50 40       	sbci	r21, 0x00	; 0
    24e4:	8a f0       	brmi	.+34     	; 0x2508 <__mulsf3_pse+0x84>
    24e6:	e1 f0       	breq	.+56     	; 0x2520 <__mulsf3_pse+0x9c>
    24e8:	88 23       	and	r24, r24
    24ea:	4a f0       	brmi	.+18     	; 0x24fe <__mulsf3_pse+0x7a>
    24ec:	ee 0f       	add	r30, r30
    24ee:	ff 1f       	adc	r31, r31
    24f0:	bb 1f       	adc	r27, r27
    24f2:	66 1f       	adc	r22, r22
    24f4:	77 1f       	adc	r23, r23
    24f6:	88 1f       	adc	r24, r24
    24f8:	91 50       	subi	r25, 0x01	; 1
    24fa:	50 40       	sbci	r21, 0x00	; 0
    24fc:	a9 f7       	brne	.-22     	; 0x24e8 <__mulsf3_pse+0x64>
    24fe:	9e 3f       	cpi	r25, 0xFE	; 254
    2500:	51 05       	cpc	r21, r1
    2502:	70 f0       	brcs	.+28     	; 0x2520 <__mulsf3_pse+0x9c>
    2504:	14 c0       	rjmp	.+40     	; 0x252e <__fp_inf>
    2506:	5e c0       	rjmp	.+188    	; 0x25c4 <__fp_szero>
    2508:	5f 3f       	cpi	r21, 0xFF	; 255
    250a:	ec f3       	brlt	.-6      	; 0x2506 <__mulsf3_pse+0x82>
    250c:	98 3e       	cpi	r25, 0xE8	; 232
    250e:	dc f3       	brlt	.-10     	; 0x2506 <__mulsf3_pse+0x82>
    2510:	86 95       	lsr	r24
    2512:	77 95       	ror	r23
    2514:	67 95       	ror	r22
    2516:	b7 95       	ror	r27
    2518:	f7 95       	ror	r31
    251a:	e7 95       	ror	r30
    251c:	9f 5f       	subi	r25, 0xFF	; 255
    251e:	c1 f7       	brne	.-16     	; 0x2510 <__mulsf3_pse+0x8c>
    2520:	fe 2b       	or	r31, r30
    2522:	88 0f       	add	r24, r24
    2524:	91 1d       	adc	r25, r1
    2526:	96 95       	lsr	r25
    2528:	87 95       	ror	r24
    252a:	97 f9       	bld	r25, 7
    252c:	08 95       	ret

0000252e <__fp_inf>:
    252e:	97 f9       	bld	r25, 7
    2530:	9f 67       	ori	r25, 0x7F	; 127
    2532:	80 e8       	ldi	r24, 0x80	; 128
    2534:	70 e0       	ldi	r23, 0x00	; 0
    2536:	60 e0       	ldi	r22, 0x00	; 0
    2538:	08 95       	ret

0000253a <__fp_nan>:
    253a:	9f ef       	ldi	r25, 0xFF	; 255
    253c:	80 ec       	ldi	r24, 0xC0	; 192
    253e:	08 95       	ret

00002540 <__fp_pscA>:
    2540:	00 24       	eor	r0, r0
    2542:	0a 94       	dec	r0
    2544:	16 16       	cp	r1, r22
    2546:	17 06       	cpc	r1, r23
    2548:	18 06       	cpc	r1, r24
    254a:	09 06       	cpc	r0, r25
    254c:	08 95       	ret

0000254e <__fp_pscB>:
    254e:	00 24       	eor	r0, r0
    2550:	0a 94       	dec	r0
    2552:	12 16       	cp	r1, r18
    2554:	13 06       	cpc	r1, r19
    2556:	14 06       	cpc	r1, r20
    2558:	05 06       	cpc	r0, r21
    255a:	08 95       	ret

0000255c <__fp_round>:
    255c:	09 2e       	mov	r0, r25
    255e:	03 94       	inc	r0
    2560:	00 0c       	add	r0, r0
    2562:	11 f4       	brne	.+4      	; 0x2568 <__fp_round+0xc>
    2564:	88 23       	and	r24, r24
    2566:	52 f0       	brmi	.+20     	; 0x257c <__fp_round+0x20>
    2568:	bb 0f       	add	r27, r27
    256a:	40 f4       	brcc	.+16     	; 0x257c <__fp_round+0x20>
    256c:	bf 2b       	or	r27, r31
    256e:	11 f4       	brne	.+4      	; 0x2574 <__fp_round+0x18>
    2570:	60 ff       	sbrs	r22, 0
    2572:	04 c0       	rjmp	.+8      	; 0x257c <__fp_round+0x20>
    2574:	6f 5f       	subi	r22, 0xFF	; 255
    2576:	7f 4f       	sbci	r23, 0xFF	; 255
    2578:	8f 4f       	sbci	r24, 0xFF	; 255
    257a:	9f 4f       	sbci	r25, 0xFF	; 255
    257c:	08 95       	ret

0000257e <__fp_split3>:
    257e:	57 fd       	sbrc	r21, 7
    2580:	90 58       	subi	r25, 0x80	; 128
    2582:	44 0f       	add	r20, r20
    2584:	55 1f       	adc	r21, r21
    2586:	59 f0       	breq	.+22     	; 0x259e <__fp_splitA+0x10>
    2588:	5f 3f       	cpi	r21, 0xFF	; 255
    258a:	71 f0       	breq	.+28     	; 0x25a8 <__fp_splitA+0x1a>
    258c:	47 95       	ror	r20

0000258e <__fp_splitA>:
    258e:	88 0f       	add	r24, r24
    2590:	97 fb       	bst	r25, 7
    2592:	99 1f       	adc	r25, r25
    2594:	61 f0       	breq	.+24     	; 0x25ae <__fp_splitA+0x20>
    2596:	9f 3f       	cpi	r25, 0xFF	; 255
    2598:	79 f0       	breq	.+30     	; 0x25b8 <__fp_splitA+0x2a>
    259a:	87 95       	ror	r24
    259c:	08 95       	ret
    259e:	12 16       	cp	r1, r18
    25a0:	13 06       	cpc	r1, r19
    25a2:	14 06       	cpc	r1, r20
    25a4:	55 1f       	adc	r21, r21
    25a6:	f2 cf       	rjmp	.-28     	; 0x258c <__fp_split3+0xe>
    25a8:	46 95       	lsr	r20
    25aa:	f1 df       	rcall	.-30     	; 0x258e <__fp_splitA>
    25ac:	08 c0       	rjmp	.+16     	; 0x25be <__fp_splitA+0x30>
    25ae:	16 16       	cp	r1, r22
    25b0:	17 06       	cpc	r1, r23
    25b2:	18 06       	cpc	r1, r24
    25b4:	99 1f       	adc	r25, r25
    25b6:	f1 cf       	rjmp	.-30     	; 0x259a <__fp_splitA+0xc>
    25b8:	86 95       	lsr	r24
    25ba:	71 05       	cpc	r23, r1
    25bc:	61 05       	cpc	r22, r1
    25be:	08 94       	sec
    25c0:	08 95       	ret

000025c2 <__fp_zero>:
    25c2:	e8 94       	clt

000025c4 <__fp_szero>:
    25c4:	bb 27       	eor	r27, r27
    25c6:	66 27       	eor	r22, r22
    25c8:	77 27       	eor	r23, r23
    25ca:	cb 01       	movw	r24, r22
    25cc:	97 f9       	bld	r25, 7
    25ce:	08 95       	ret

000025d0 <__udivmodsi4>:
    25d0:	a1 e2       	ldi	r26, 0x21	; 33
    25d2:	1a 2e       	mov	r1, r26
    25d4:	aa 1b       	sub	r26, r26
    25d6:	bb 1b       	sub	r27, r27
    25d8:	fd 01       	movw	r30, r26
    25da:	0d c0       	rjmp	.+26     	; 0x25f6 <__udivmodsi4_ep>

000025dc <__udivmodsi4_loop>:
    25dc:	aa 1f       	adc	r26, r26
    25de:	bb 1f       	adc	r27, r27
    25e0:	ee 1f       	adc	r30, r30
    25e2:	ff 1f       	adc	r31, r31
    25e4:	a2 17       	cp	r26, r18
    25e6:	b3 07       	cpc	r27, r19
    25e8:	e4 07       	cpc	r30, r20
    25ea:	f5 07       	cpc	r31, r21
    25ec:	20 f0       	brcs	.+8      	; 0x25f6 <__udivmodsi4_ep>
    25ee:	a2 1b       	sub	r26, r18
    25f0:	b3 0b       	sbc	r27, r19
    25f2:	e4 0b       	sbc	r30, r20
    25f4:	f5 0b       	sbc	r31, r21

000025f6 <__udivmodsi4_ep>:
    25f6:	66 1f       	adc	r22, r22
    25f8:	77 1f       	adc	r23, r23
    25fa:	88 1f       	adc	r24, r24
    25fc:	99 1f       	adc	r25, r25
    25fe:	1a 94       	dec	r1
    2600:	69 f7       	brne	.-38     	; 0x25dc <__udivmodsi4_loop>
    2602:	60 95       	com	r22
    2604:	70 95       	com	r23
    2606:	80 95       	com	r24
    2608:	90 95       	com	r25
    260a:	9b 01       	movw	r18, r22
    260c:	ac 01       	movw	r20, r24
    260e:	bd 01       	movw	r22, r26
    2610:	cf 01       	movw	r24, r30
    2612:	08 95       	ret

00002614 <__ftoa_engine>:
    2614:	28 30       	cpi	r18, 0x08	; 8
    2616:	08 f0       	brcs	.+2      	; 0x261a <__ftoa_engine+0x6>
    2618:	27 e0       	ldi	r18, 0x07	; 7
    261a:	33 27       	eor	r19, r19
    261c:	da 01       	movw	r26, r20
    261e:	99 0f       	add	r25, r25
    2620:	31 1d       	adc	r19, r1
    2622:	87 fd       	sbrc	r24, 7
    2624:	91 60       	ori	r25, 0x01	; 1
    2626:	00 96       	adiw	r24, 0x00	; 0
    2628:	61 05       	cpc	r22, r1
    262a:	71 05       	cpc	r23, r1
    262c:	39 f4       	brne	.+14     	; 0x263c <__ftoa_engine+0x28>
    262e:	32 60       	ori	r19, 0x02	; 2
    2630:	2e 5f       	subi	r18, 0xFE	; 254
    2632:	3d 93       	st	X+, r19
    2634:	30 e3       	ldi	r19, 0x30	; 48
    2636:	2a 95       	dec	r18
    2638:	e1 f7       	brne	.-8      	; 0x2632 <__ftoa_engine+0x1e>
    263a:	08 95       	ret
    263c:	9f 3f       	cpi	r25, 0xFF	; 255
    263e:	30 f0       	brcs	.+12     	; 0x264c <__ftoa_engine+0x38>
    2640:	80 38       	cpi	r24, 0x80	; 128
    2642:	71 05       	cpc	r23, r1
    2644:	61 05       	cpc	r22, r1
    2646:	09 f0       	breq	.+2      	; 0x264a <__ftoa_engine+0x36>
    2648:	3c 5f       	subi	r19, 0xFC	; 252
    264a:	3c 5f       	subi	r19, 0xFC	; 252
    264c:	3d 93       	st	X+, r19
    264e:	91 30       	cpi	r25, 0x01	; 1
    2650:	08 f0       	brcs	.+2      	; 0x2654 <__ftoa_engine+0x40>
    2652:	80 68       	ori	r24, 0x80	; 128
    2654:	91 1d       	adc	r25, r1
    2656:	df 93       	push	r29
    2658:	cf 93       	push	r28
    265a:	1f 93       	push	r17
    265c:	0f 93       	push	r16
    265e:	ff 92       	push	r15
    2660:	ef 92       	push	r14
    2662:	19 2f       	mov	r17, r25
    2664:	98 7f       	andi	r25, 0xF8	; 248
    2666:	96 95       	lsr	r25
    2668:	e9 2f       	mov	r30, r25
    266a:	96 95       	lsr	r25
    266c:	96 95       	lsr	r25
    266e:	e9 0f       	add	r30, r25
    2670:	ff 27       	eor	r31, r31
    2672:	e2 51       	subi	r30, 0x12	; 18
    2674:	ff 4f       	sbci	r31, 0xFF	; 255
    2676:	99 27       	eor	r25, r25
    2678:	33 27       	eor	r19, r19
    267a:	ee 24       	eor	r14, r14
    267c:	ff 24       	eor	r15, r15
    267e:	a7 01       	movw	r20, r14
    2680:	e7 01       	movw	r28, r14
    2682:	05 90       	lpm	r0, Z+
    2684:	08 94       	sec
    2686:	07 94       	ror	r0
    2688:	28 f4       	brcc	.+10     	; 0x2694 <__ftoa_engine+0x80>
    268a:	36 0f       	add	r19, r22
    268c:	e7 1e       	adc	r14, r23
    268e:	f8 1e       	adc	r15, r24
    2690:	49 1f       	adc	r20, r25
    2692:	51 1d       	adc	r21, r1
    2694:	66 0f       	add	r22, r22
    2696:	77 1f       	adc	r23, r23
    2698:	88 1f       	adc	r24, r24
    269a:	99 1f       	adc	r25, r25
    269c:	06 94       	lsr	r0
    269e:	a1 f7       	brne	.-24     	; 0x2688 <__ftoa_engine+0x74>
    26a0:	05 90       	lpm	r0, Z+
    26a2:	07 94       	ror	r0
    26a4:	28 f4       	brcc	.+10     	; 0x26b0 <__ftoa_engine+0x9c>
    26a6:	e7 0e       	add	r14, r23
    26a8:	f8 1e       	adc	r15, r24
    26aa:	49 1f       	adc	r20, r25
    26ac:	56 1f       	adc	r21, r22
    26ae:	c1 1d       	adc	r28, r1
    26b0:	77 0f       	add	r23, r23
    26b2:	88 1f       	adc	r24, r24
    26b4:	99 1f       	adc	r25, r25
    26b6:	66 1f       	adc	r22, r22
    26b8:	06 94       	lsr	r0
    26ba:	a1 f7       	brne	.-24     	; 0x26a4 <__ftoa_engine+0x90>
    26bc:	05 90       	lpm	r0, Z+
    26be:	07 94       	ror	r0
    26c0:	28 f4       	brcc	.+10     	; 0x26cc <__ftoa_engine+0xb8>
    26c2:	f8 0e       	add	r15, r24
    26c4:	49 1f       	adc	r20, r25
    26c6:	56 1f       	adc	r21, r22
    26c8:	c7 1f       	adc	r28, r23
    26ca:	d1 1d       	adc	r29, r1
    26cc:	88 0f       	add	r24, r24
    26ce:	99 1f       	adc	r25, r25
    26d0:	66 1f       	adc	r22, r22
    26d2:	77 1f       	adc	r23, r23
    26d4:	06 94       	lsr	r0
    26d6:	a1 f7       	brne	.-24     	; 0x26c0 <__ftoa_engine+0xac>
    26d8:	05 90       	lpm	r0, Z+
    26da:	07 94       	ror	r0
    26dc:	20 f4       	brcc	.+8      	; 0x26e6 <__ftoa_engine+0xd2>
    26de:	49 0f       	add	r20, r25
    26e0:	56 1f       	adc	r21, r22
    26e2:	c7 1f       	adc	r28, r23
    26e4:	d8 1f       	adc	r29, r24
    26e6:	99 0f       	add	r25, r25
    26e8:	66 1f       	adc	r22, r22
    26ea:	77 1f       	adc	r23, r23
    26ec:	88 1f       	adc	r24, r24
    26ee:	06 94       	lsr	r0
    26f0:	a9 f7       	brne	.-22     	; 0x26dc <__ftoa_engine+0xc8>
    26f2:	84 91       	lpm	r24, Z
    26f4:	10 95       	com	r17
    26f6:	17 70       	andi	r17, 0x07	; 7
    26f8:	41 f0       	breq	.+16     	; 0x270a <__ftoa_engine+0xf6>
    26fa:	d6 95       	lsr	r29
    26fc:	c7 95       	ror	r28
    26fe:	57 95       	ror	r21
    2700:	47 95       	ror	r20
    2702:	f7 94       	ror	r15
    2704:	e7 94       	ror	r14
    2706:	1a 95       	dec	r17
    2708:	c1 f7       	brne	.-16     	; 0x26fa <__ftoa_engine+0xe6>
    270a:	e4 e9       	ldi	r30, 0x94	; 148
    270c:	f0 e0       	ldi	r31, 0x00	; 0
    270e:	68 94       	set
    2710:	15 90       	lpm	r1, Z+
    2712:	15 91       	lpm	r17, Z+
    2714:	35 91       	lpm	r19, Z+
    2716:	65 91       	lpm	r22, Z+
    2718:	95 91       	lpm	r25, Z+
    271a:	05 90       	lpm	r0, Z+
    271c:	7f e2       	ldi	r23, 0x2F	; 47
    271e:	73 95       	inc	r23
    2720:	e1 18       	sub	r14, r1
    2722:	f1 0a       	sbc	r15, r17
    2724:	43 0b       	sbc	r20, r19
    2726:	56 0b       	sbc	r21, r22
    2728:	c9 0b       	sbc	r28, r25
    272a:	d0 09       	sbc	r29, r0
    272c:	c0 f7       	brcc	.-16     	; 0x271e <__ftoa_engine+0x10a>
    272e:	e1 0c       	add	r14, r1
    2730:	f1 1e       	adc	r15, r17
    2732:	43 1f       	adc	r20, r19
    2734:	56 1f       	adc	r21, r22
    2736:	c9 1f       	adc	r28, r25
    2738:	d0 1d       	adc	r29, r0
    273a:	7e f4       	brtc	.+30     	; 0x275a <__ftoa_engine+0x146>
    273c:	70 33       	cpi	r23, 0x30	; 48
    273e:	11 f4       	brne	.+4      	; 0x2744 <__ftoa_engine+0x130>
    2740:	8a 95       	dec	r24
    2742:	e6 cf       	rjmp	.-52     	; 0x2710 <__ftoa_engine+0xfc>
    2744:	e8 94       	clt
    2746:	01 50       	subi	r16, 0x01	; 1
    2748:	30 f0       	brcs	.+12     	; 0x2756 <__ftoa_engine+0x142>
    274a:	08 0f       	add	r16, r24
    274c:	0a f4       	brpl	.+2      	; 0x2750 <__ftoa_engine+0x13c>
    274e:	00 27       	eor	r16, r16
    2750:	02 17       	cp	r16, r18
    2752:	08 f4       	brcc	.+2      	; 0x2756 <__ftoa_engine+0x142>
    2754:	20 2f       	mov	r18, r16
    2756:	23 95       	inc	r18
    2758:	02 2f       	mov	r16, r18
    275a:	7a 33       	cpi	r23, 0x3A	; 58
    275c:	28 f0       	brcs	.+10     	; 0x2768 <__ftoa_engine+0x154>
    275e:	79 e3       	ldi	r23, 0x39	; 57
    2760:	7d 93       	st	X+, r23
    2762:	2a 95       	dec	r18
    2764:	e9 f7       	brne	.-6      	; 0x2760 <__ftoa_engine+0x14c>
    2766:	10 c0       	rjmp	.+32     	; 0x2788 <__ftoa_engine+0x174>
    2768:	7d 93       	st	X+, r23
    276a:	2a 95       	dec	r18
    276c:	89 f6       	brne	.-94     	; 0x2710 <__ftoa_engine+0xfc>
    276e:	06 94       	lsr	r0
    2770:	97 95       	ror	r25
    2772:	67 95       	ror	r22
    2774:	37 95       	ror	r19
    2776:	17 95       	ror	r17
    2778:	17 94       	ror	r1
    277a:	e1 18       	sub	r14, r1
    277c:	f1 0a       	sbc	r15, r17
    277e:	43 0b       	sbc	r20, r19
    2780:	56 0b       	sbc	r21, r22
    2782:	c9 0b       	sbc	r28, r25
    2784:	d0 09       	sbc	r29, r0
    2786:	98 f0       	brcs	.+38     	; 0x27ae <__ftoa_engine+0x19a>
    2788:	23 95       	inc	r18
    278a:	7e 91       	ld	r23, -X
    278c:	73 95       	inc	r23
    278e:	7a 33       	cpi	r23, 0x3A	; 58
    2790:	08 f0       	brcs	.+2      	; 0x2794 <__ftoa_engine+0x180>
    2792:	70 e3       	ldi	r23, 0x30	; 48
    2794:	7c 93       	st	X, r23
    2796:	20 13       	cpse	r18, r16
    2798:	b8 f7       	brcc	.-18     	; 0x2788 <__ftoa_engine+0x174>
    279a:	7e 91       	ld	r23, -X
    279c:	70 61       	ori	r23, 0x10	; 16
    279e:	7d 93       	st	X+, r23
    27a0:	30 f0       	brcs	.+12     	; 0x27ae <__ftoa_engine+0x19a>
    27a2:	83 95       	inc	r24
    27a4:	71 e3       	ldi	r23, 0x31	; 49
    27a6:	7d 93       	st	X+, r23
    27a8:	70 e3       	ldi	r23, 0x30	; 48
    27aa:	2a 95       	dec	r18
    27ac:	e1 f7       	brne	.-8      	; 0x27a6 <__ftoa_engine+0x192>
    27ae:	11 24       	eor	r1, r1
    27b0:	ef 90       	pop	r14
    27b2:	ff 90       	pop	r15
    27b4:	0f 91       	pop	r16
    27b6:	1f 91       	pop	r17
    27b8:	cf 91       	pop	r28
    27ba:	df 91       	pop	r29
    27bc:	99 27       	eor	r25, r25
    27be:	87 fd       	sbrc	r24, 7
    27c0:	90 95       	com	r25
    27c2:	08 95       	ret

000027c4 <isspace>:
    27c4:	91 11       	cpse	r25, r1
    27c6:	47 c1       	rjmp	.+654    	; 0x2a56 <__ctype_isfalse>
    27c8:	80 32       	cpi	r24, 0x20	; 32
    27ca:	19 f0       	breq	.+6      	; 0x27d2 <isspace+0xe>
    27cc:	89 50       	subi	r24, 0x09	; 9
    27ce:	85 50       	subi	r24, 0x05	; 5
    27d0:	d0 f7       	brcc	.-12     	; 0x27c6 <isspace+0x2>
    27d2:	08 95       	ret

000027d4 <tolower>:
    27d4:	91 11       	cpse	r25, r1
    27d6:	08 95       	ret
    27d8:	81 54       	subi	r24, 0x41	; 65
    27da:	8a 51       	subi	r24, 0x1A	; 26
    27dc:	08 f4       	brcc	.+2      	; 0x27e0 <tolower+0xc>
    27de:	80 5e       	subi	r24, 0xE0	; 224
    27e0:	85 5a       	subi	r24, 0xA5	; 165
    27e2:	08 95       	ret

000027e4 <strchr_P>:
    27e4:	fc 01       	movw	r30, r24
    27e6:	05 90       	lpm	r0, Z+
    27e8:	06 16       	cp	r0, r22
    27ea:	21 f0       	breq	.+8      	; 0x27f4 <strchr_P+0x10>
    27ec:	00 20       	and	r0, r0
    27ee:	d9 f7       	brne	.-10     	; 0x27e6 <strchr_P+0x2>
    27f0:	c0 01       	movw	r24, r0
    27f2:	08 95       	ret
    27f4:	31 97       	sbiw	r30, 0x01	; 1
    27f6:	cf 01       	movw	r24, r30
    27f8:	08 95       	ret

000027fa <strnlen_P>:
    27fa:	fc 01       	movw	r30, r24
    27fc:	05 90       	lpm	r0, Z+
    27fe:	61 50       	subi	r22, 0x01	; 1
    2800:	70 40       	sbci	r23, 0x00	; 0
    2802:	01 10       	cpse	r0, r1
    2804:	d8 f7       	brcc	.-10     	; 0x27fc <strnlen_P+0x2>
    2806:	80 95       	com	r24
    2808:	90 95       	com	r25
    280a:	8e 0f       	add	r24, r30
    280c:	9f 1f       	adc	r25, r31
    280e:	08 95       	ret

00002810 <strnlen>:
    2810:	fc 01       	movw	r30, r24
    2812:	61 50       	subi	r22, 0x01	; 1
    2814:	70 40       	sbci	r23, 0x00	; 0
    2816:	01 90       	ld	r0, Z+
    2818:	01 10       	cpse	r0, r1
    281a:	d8 f7       	brcc	.-10     	; 0x2812 <strnlen+0x2>
    281c:	80 95       	com	r24
    281e:	90 95       	com	r25
    2820:	8e 0f       	add	r24, r30
    2822:	9f 1f       	adc	r25, r31
    2824:	08 95       	ret

00002826 <fgetc>:
    2826:	cf 93       	push	r28
    2828:	df 93       	push	r29
    282a:	ec 01       	movw	r28, r24
    282c:	2b 81       	ldd	r18, Y+3	; 0x03
    282e:	20 ff       	sbrs	r18, 0
    2830:	33 c0       	rjmp	.+102    	; 0x2898 <fgetc+0x72>
    2832:	26 ff       	sbrs	r18, 6
    2834:	0a c0       	rjmp	.+20     	; 0x284a <fgetc+0x24>
    2836:	2f 7b       	andi	r18, 0xBF	; 191
    2838:	2b 83       	std	Y+3, r18	; 0x03
    283a:	8e 81       	ldd	r24, Y+6	; 0x06
    283c:	9f 81       	ldd	r25, Y+7	; 0x07
    283e:	01 96       	adiw	r24, 0x01	; 1
    2840:	9f 83       	std	Y+7, r25	; 0x07
    2842:	8e 83       	std	Y+6, r24	; 0x06
    2844:	8a 81       	ldd	r24, Y+2	; 0x02
    2846:	90 e0       	ldi	r25, 0x00	; 0
    2848:	29 c0       	rjmp	.+82     	; 0x289c <fgetc+0x76>
    284a:	22 ff       	sbrs	r18, 2
    284c:	0f c0       	rjmp	.+30     	; 0x286c <fgetc+0x46>
    284e:	e8 81       	ld	r30, Y
    2850:	f9 81       	ldd	r31, Y+1	; 0x01
    2852:	80 81       	ld	r24, Z
    2854:	08 2e       	mov	r0, r24
    2856:	00 0c       	add	r0, r0
    2858:	99 0b       	sbc	r25, r25
    285a:	00 97       	sbiw	r24, 0x00	; 0
    285c:	19 f4       	brne	.+6      	; 0x2864 <fgetc+0x3e>
    285e:	20 62       	ori	r18, 0x20	; 32
    2860:	2b 83       	std	Y+3, r18	; 0x03
    2862:	1a c0       	rjmp	.+52     	; 0x2898 <fgetc+0x72>
    2864:	31 96       	adiw	r30, 0x01	; 1
    2866:	f9 83       	std	Y+1, r31	; 0x01
    2868:	e8 83       	st	Y, r30
    286a:	0e c0       	rjmp	.+28     	; 0x2888 <fgetc+0x62>
    286c:	ea 85       	ldd	r30, Y+10	; 0x0a
    286e:	fb 85       	ldd	r31, Y+11	; 0x0b
    2870:	09 95       	icall
    2872:	97 ff       	sbrs	r25, 7
    2874:	09 c0       	rjmp	.+18     	; 0x2888 <fgetc+0x62>
    2876:	2b 81       	ldd	r18, Y+3	; 0x03
    2878:	01 96       	adiw	r24, 0x01	; 1
    287a:	11 f0       	breq	.+4      	; 0x2880 <fgetc+0x5a>
    287c:	80 e2       	ldi	r24, 0x20	; 32
    287e:	01 c0       	rjmp	.+2      	; 0x2882 <fgetc+0x5c>
    2880:	80 e1       	ldi	r24, 0x10	; 16
    2882:	82 2b       	or	r24, r18
    2884:	8b 83       	std	Y+3, r24	; 0x03
    2886:	08 c0       	rjmp	.+16     	; 0x2898 <fgetc+0x72>
    2888:	2e 81       	ldd	r18, Y+6	; 0x06
    288a:	3f 81       	ldd	r19, Y+7	; 0x07
    288c:	2f 5f       	subi	r18, 0xFF	; 255
    288e:	3f 4f       	sbci	r19, 0xFF	; 255
    2890:	3f 83       	std	Y+7, r19	; 0x07
    2892:	2e 83       	std	Y+6, r18	; 0x06
    2894:	99 27       	eor	r25, r25
    2896:	02 c0       	rjmp	.+4      	; 0x289c <fgetc+0x76>
    2898:	8f ef       	ldi	r24, 0xFF	; 255
    289a:	9f ef       	ldi	r25, 0xFF	; 255
    289c:	df 91       	pop	r29
    289e:	cf 91       	pop	r28
    28a0:	08 95       	ret

000028a2 <fputc>:
    28a2:	0f 93       	push	r16
    28a4:	1f 93       	push	r17
    28a6:	cf 93       	push	r28
    28a8:	df 93       	push	r29
    28aa:	fb 01       	movw	r30, r22
    28ac:	23 81       	ldd	r18, Z+3	; 0x03
    28ae:	21 fd       	sbrc	r18, 1
    28b0:	03 c0       	rjmp	.+6      	; 0x28b8 <fputc+0x16>
    28b2:	8f ef       	ldi	r24, 0xFF	; 255
    28b4:	9f ef       	ldi	r25, 0xFF	; 255
    28b6:	2c c0       	rjmp	.+88     	; 0x2910 <fputc+0x6e>
    28b8:	22 ff       	sbrs	r18, 2
    28ba:	16 c0       	rjmp	.+44     	; 0x28e8 <fputc+0x46>
    28bc:	46 81       	ldd	r20, Z+6	; 0x06
    28be:	57 81       	ldd	r21, Z+7	; 0x07
    28c0:	24 81       	ldd	r18, Z+4	; 0x04
    28c2:	35 81       	ldd	r19, Z+5	; 0x05
    28c4:	42 17       	cp	r20, r18
    28c6:	53 07       	cpc	r21, r19
    28c8:	44 f4       	brge	.+16     	; 0x28da <fputc+0x38>
    28ca:	a0 81       	ld	r26, Z
    28cc:	b1 81       	ldd	r27, Z+1	; 0x01
    28ce:	9d 01       	movw	r18, r26
    28d0:	2f 5f       	subi	r18, 0xFF	; 255
    28d2:	3f 4f       	sbci	r19, 0xFF	; 255
    28d4:	31 83       	std	Z+1, r19	; 0x01
    28d6:	20 83       	st	Z, r18
    28d8:	8c 93       	st	X, r24
    28da:	26 81       	ldd	r18, Z+6	; 0x06
    28dc:	37 81       	ldd	r19, Z+7	; 0x07
    28de:	2f 5f       	subi	r18, 0xFF	; 255
    28e0:	3f 4f       	sbci	r19, 0xFF	; 255
    28e2:	37 83       	std	Z+7, r19	; 0x07
    28e4:	26 83       	std	Z+6, r18	; 0x06
    28e6:	14 c0       	rjmp	.+40     	; 0x2910 <fputc+0x6e>
    28e8:	8b 01       	movw	r16, r22
    28ea:	ec 01       	movw	r28, r24
    28ec:	fb 01       	movw	r30, r22
    28ee:	00 84       	ldd	r0, Z+8	; 0x08
    28f0:	f1 85       	ldd	r31, Z+9	; 0x09
    28f2:	e0 2d       	mov	r30, r0
    28f4:	09 95       	icall
    28f6:	89 2b       	or	r24, r25
    28f8:	e1 f6       	brne	.-72     	; 0x28b2 <fputc+0x10>
    28fa:	d8 01       	movw	r26, r16
    28fc:	16 96       	adiw	r26, 0x06	; 6
    28fe:	8d 91       	ld	r24, X+
    2900:	9c 91       	ld	r25, X
    2902:	17 97       	sbiw	r26, 0x07	; 7
    2904:	01 96       	adiw	r24, 0x01	; 1
    2906:	17 96       	adiw	r26, 0x07	; 7
    2908:	9c 93       	st	X, r25
    290a:	8e 93       	st	-X, r24
    290c:	16 97       	sbiw	r26, 0x06	; 6
    290e:	ce 01       	movw	r24, r28
    2910:	df 91       	pop	r29
    2912:	cf 91       	pop	r28
    2914:	1f 91       	pop	r17
    2916:	0f 91       	pop	r16
    2918:	08 95       	ret

0000291a <printf>:
    291a:	cf 93       	push	r28
    291c:	df 93       	push	r29
    291e:	cd b7       	in	r28, 0x3d	; 61
    2920:	de b7       	in	r29, 0x3e	; 62
    2922:	ae 01       	movw	r20, r28
    2924:	4b 5f       	subi	r20, 0xFB	; 251
    2926:	5f 4f       	sbci	r21, 0xFF	; 255
    2928:	fa 01       	movw	r30, r20
    292a:	61 91       	ld	r22, Z+
    292c:	71 91       	ld	r23, Z+
    292e:	af 01       	movw	r20, r30
    2930:	80 91 95 01 	lds	r24, 0x0195	; 0x800195 <__iob+0x2>
    2934:	90 91 96 01 	lds	r25, 0x0196	; 0x800196 <__iob+0x3>
    2938:	0e 94 37 0a 	call	0x146e	; 0x146e <vfprintf>
    293c:	df 91       	pop	r29
    293e:	cf 91       	pop	r28
    2940:	08 95       	ret

00002942 <scanf>:
    2942:	cf 93       	push	r28
    2944:	df 93       	push	r29
    2946:	cd b7       	in	r28, 0x3d	; 61
    2948:	de b7       	in	r29, 0x3e	; 62
    294a:	ae 01       	movw	r20, r28
    294c:	4b 5f       	subi	r20, 0xFB	; 251
    294e:	5f 4f       	sbci	r21, 0xFF	; 255
    2950:	fa 01       	movw	r30, r20
    2952:	61 91       	ld	r22, Z+
    2954:	71 91       	ld	r23, Z+
    2956:	af 01       	movw	r20, r30
    2958:	80 91 93 01 	lds	r24, 0x0193	; 0x800193 <__iob>
    295c:	90 91 94 01 	lds	r25, 0x0194	; 0x800194 <__iob+0x1>
    2960:	11 dc       	rcall	.-2014   	; 0x2184 <vfscanf>
    2962:	df 91       	pop	r29
    2964:	cf 91       	pop	r28
    2966:	08 95       	ret

00002968 <ungetc>:
    2968:	fb 01       	movw	r30, r22
    296a:	23 81       	ldd	r18, Z+3	; 0x03
    296c:	20 ff       	sbrs	r18, 0
    296e:	12 c0       	rjmp	.+36     	; 0x2994 <ungetc+0x2c>
    2970:	26 fd       	sbrc	r18, 6
    2972:	10 c0       	rjmp	.+32     	; 0x2994 <ungetc+0x2c>
    2974:	8f 3f       	cpi	r24, 0xFF	; 255
    2976:	3f ef       	ldi	r19, 0xFF	; 255
    2978:	93 07       	cpc	r25, r19
    297a:	61 f0       	breq	.+24     	; 0x2994 <ungetc+0x2c>
    297c:	82 83       	std	Z+2, r24	; 0x02
    297e:	2f 7d       	andi	r18, 0xDF	; 223
    2980:	20 64       	ori	r18, 0x40	; 64
    2982:	23 83       	std	Z+3, r18	; 0x03
    2984:	26 81       	ldd	r18, Z+6	; 0x06
    2986:	37 81       	ldd	r19, Z+7	; 0x07
    2988:	21 50       	subi	r18, 0x01	; 1
    298a:	31 09       	sbc	r19, r1
    298c:	37 83       	std	Z+7, r19	; 0x07
    298e:	26 83       	std	Z+6, r18	; 0x06
    2990:	99 27       	eor	r25, r25
    2992:	08 95       	ret
    2994:	8f ef       	ldi	r24, 0xFF	; 255
    2996:	9f ef       	ldi	r25, 0xFF	; 255
    2998:	08 95       	ret

0000299a <__ultoa_invert>:
    299a:	fa 01       	movw	r30, r20
    299c:	aa 27       	eor	r26, r26
    299e:	28 30       	cpi	r18, 0x08	; 8
    29a0:	51 f1       	breq	.+84     	; 0x29f6 <__ultoa_invert+0x5c>
    29a2:	20 31       	cpi	r18, 0x10	; 16
    29a4:	81 f1       	breq	.+96     	; 0x2a06 <__ultoa_invert+0x6c>
    29a6:	e8 94       	clt
    29a8:	6f 93       	push	r22
    29aa:	6e 7f       	andi	r22, 0xFE	; 254
    29ac:	6e 5f       	subi	r22, 0xFE	; 254
    29ae:	7f 4f       	sbci	r23, 0xFF	; 255
    29b0:	8f 4f       	sbci	r24, 0xFF	; 255
    29b2:	9f 4f       	sbci	r25, 0xFF	; 255
    29b4:	af 4f       	sbci	r26, 0xFF	; 255
    29b6:	b1 e0       	ldi	r27, 0x01	; 1
    29b8:	3e d0       	rcall	.+124    	; 0x2a36 <__ultoa_invert+0x9c>
    29ba:	b4 e0       	ldi	r27, 0x04	; 4
    29bc:	3c d0       	rcall	.+120    	; 0x2a36 <__ultoa_invert+0x9c>
    29be:	67 0f       	add	r22, r23
    29c0:	78 1f       	adc	r23, r24
    29c2:	89 1f       	adc	r24, r25
    29c4:	9a 1f       	adc	r25, r26
    29c6:	a1 1d       	adc	r26, r1
    29c8:	68 0f       	add	r22, r24
    29ca:	79 1f       	adc	r23, r25
    29cc:	8a 1f       	adc	r24, r26
    29ce:	91 1d       	adc	r25, r1
    29d0:	a1 1d       	adc	r26, r1
    29d2:	6a 0f       	add	r22, r26
    29d4:	71 1d       	adc	r23, r1
    29d6:	81 1d       	adc	r24, r1
    29d8:	91 1d       	adc	r25, r1
    29da:	a1 1d       	adc	r26, r1
    29dc:	20 d0       	rcall	.+64     	; 0x2a1e <__ultoa_invert+0x84>
    29de:	09 f4       	brne	.+2      	; 0x29e2 <__ultoa_invert+0x48>
    29e0:	68 94       	set
    29e2:	3f 91       	pop	r19
    29e4:	2a e0       	ldi	r18, 0x0A	; 10
    29e6:	26 9f       	mul	r18, r22
    29e8:	11 24       	eor	r1, r1
    29ea:	30 19       	sub	r19, r0
    29ec:	30 5d       	subi	r19, 0xD0	; 208
    29ee:	31 93       	st	Z+, r19
    29f0:	de f6       	brtc	.-74     	; 0x29a8 <__ultoa_invert+0xe>
    29f2:	cf 01       	movw	r24, r30
    29f4:	08 95       	ret
    29f6:	46 2f       	mov	r20, r22
    29f8:	47 70       	andi	r20, 0x07	; 7
    29fa:	40 5d       	subi	r20, 0xD0	; 208
    29fc:	41 93       	st	Z+, r20
    29fe:	b3 e0       	ldi	r27, 0x03	; 3
    2a00:	0f d0       	rcall	.+30     	; 0x2a20 <__ultoa_invert+0x86>
    2a02:	c9 f7       	brne	.-14     	; 0x29f6 <__ultoa_invert+0x5c>
    2a04:	f6 cf       	rjmp	.-20     	; 0x29f2 <__ultoa_invert+0x58>
    2a06:	46 2f       	mov	r20, r22
    2a08:	4f 70       	andi	r20, 0x0F	; 15
    2a0a:	40 5d       	subi	r20, 0xD0	; 208
    2a0c:	4a 33       	cpi	r20, 0x3A	; 58
    2a0e:	18 f0       	brcs	.+6      	; 0x2a16 <__ultoa_invert+0x7c>
    2a10:	49 5d       	subi	r20, 0xD9	; 217
    2a12:	31 fd       	sbrc	r19, 1
    2a14:	40 52       	subi	r20, 0x20	; 32
    2a16:	41 93       	st	Z+, r20
    2a18:	02 d0       	rcall	.+4      	; 0x2a1e <__ultoa_invert+0x84>
    2a1a:	a9 f7       	brne	.-22     	; 0x2a06 <__ultoa_invert+0x6c>
    2a1c:	ea cf       	rjmp	.-44     	; 0x29f2 <__ultoa_invert+0x58>
    2a1e:	b4 e0       	ldi	r27, 0x04	; 4
    2a20:	a6 95       	lsr	r26
    2a22:	97 95       	ror	r25
    2a24:	87 95       	ror	r24
    2a26:	77 95       	ror	r23
    2a28:	67 95       	ror	r22
    2a2a:	ba 95       	dec	r27
    2a2c:	c9 f7       	brne	.-14     	; 0x2a20 <__ultoa_invert+0x86>
    2a2e:	00 97       	sbiw	r24, 0x00	; 0
    2a30:	61 05       	cpc	r22, r1
    2a32:	71 05       	cpc	r23, r1
    2a34:	08 95       	ret
    2a36:	9b 01       	movw	r18, r22
    2a38:	ac 01       	movw	r20, r24
    2a3a:	0a 2e       	mov	r0, r26
    2a3c:	06 94       	lsr	r0
    2a3e:	57 95       	ror	r21
    2a40:	47 95       	ror	r20
    2a42:	37 95       	ror	r19
    2a44:	27 95       	ror	r18
    2a46:	ba 95       	dec	r27
    2a48:	c9 f7       	brne	.-14     	; 0x2a3c <__ultoa_invert+0xa2>
    2a4a:	62 0f       	add	r22, r18
    2a4c:	73 1f       	adc	r23, r19
    2a4e:	84 1f       	adc	r24, r20
    2a50:	95 1f       	adc	r25, r21
    2a52:	a0 1d       	adc	r26, r0
    2a54:	08 95       	ret

00002a56 <__ctype_isfalse>:
    2a56:	99 27       	eor	r25, r25
    2a58:	88 27       	eor	r24, r24

00002a5a <__ctype_istrue>:
    2a5a:	08 95       	ret

00002a5c <eeprom_read_block>:
    2a5c:	dc 01       	movw	r26, r24
    2a5e:	cb 01       	movw	r24, r22

00002a60 <eeprom_read_blraw>:
    2a60:	fc 01       	movw	r30, r24
    2a62:	e1 99       	sbic	0x1c, 1	; 28
    2a64:	fe cf       	rjmp	.-4      	; 0x2a62 <eeprom_read_blraw+0x2>
    2a66:	06 c0       	rjmp	.+12     	; 0x2a74 <eeprom_read_blraw+0x14>
    2a68:	ff bb       	out	0x1f, r31	; 31
    2a6a:	ee bb       	out	0x1e, r30	; 30
    2a6c:	e0 9a       	sbi	0x1c, 0	; 28
    2a6e:	31 96       	adiw	r30, 0x01	; 1
    2a70:	0d b2       	in	r0, 0x1d	; 29
    2a72:	0d 92       	st	X+, r0
    2a74:	41 50       	subi	r20, 0x01	; 1
    2a76:	50 40       	sbci	r21, 0x00	; 0
    2a78:	b8 f7       	brcc	.-18     	; 0x2a68 <eeprom_read_blraw+0x8>
    2a7a:	08 95       	ret

00002a7c <eeprom_write_block>:
    2a7c:	dc 01       	movw	r26, r24
    2a7e:	cb 01       	movw	r24, r22
    2a80:	02 c0       	rjmp	.+4      	; 0x2a86 <eeprom_write_block+0xa>
    2a82:	2d 91       	ld	r18, X+
    2a84:	05 d0       	rcall	.+10     	; 0x2a90 <eeprom_write_r18>
    2a86:	41 50       	subi	r20, 0x01	; 1
    2a88:	50 40       	sbci	r21, 0x00	; 0
    2a8a:	d8 f7       	brcc	.-10     	; 0x2a82 <eeprom_write_block+0x6>
    2a8c:	08 95       	ret

00002a8e <eeprom_write_byte>:
    2a8e:	26 2f       	mov	r18, r22

00002a90 <eeprom_write_r18>:
    2a90:	e1 99       	sbic	0x1c, 1	; 28
    2a92:	fe cf       	rjmp	.-4      	; 0x2a90 <eeprom_write_r18>
    2a94:	9f bb       	out	0x1f, r25	; 31
    2a96:	8e bb       	out	0x1e, r24	; 30
    2a98:	2d bb       	out	0x1d, r18	; 29
    2a9a:	0f b6       	in	r0, 0x3f	; 63
    2a9c:	f8 94       	cli
    2a9e:	e2 9a       	sbi	0x1c, 2	; 28
    2aa0:	e1 9a       	sbi	0x1c, 1	; 28
    2aa2:	0f be       	out	0x3f, r0	; 63
    2aa4:	01 96       	adiw	r24, 0x01	; 1
    2aa6:	08 95       	ret

00002aa8 <_exit>:
    2aa8:	f8 94       	cli

00002aaa <__stop_program>:
    2aaa:	ff cf       	rjmp	.-2      	; 0x2aaa <__stop_program>
